LX51 LINKER/LOCATER V4.05                                                               04/27/2018  15:47:28  PAGE 1


LX51 LINKER/LOCATER V4.05, INVOKED BY:
C:\KEIL\C51\BIN\LX51.EXE .\OEM\Obj\STARTUP.obj, .\OEM\Obj\MPU_init.obj, .\OEM\Obj\MPU_util.obj, .\OEM\Obj\PD.obj, .\OEM\
>> Obj\ll_MPU.obj, .\OEM\Obj\ll_Init.obj, .\OEM\Obj\timer0INT1.obj, .\OEM\Obj\timer1INT3.obj, .\OEM\Obj\ext0INT0.obj, .\
>> OEM\Obj\ext1INT2.obj, .\OEM\Obj\mainloop.obj, .\OEM\Obj\versionnum.obj, .\OEM\Obj\global.obj TO .\OEM\Obj\..\..\PS880
>> 5_Generic PRINT (.\OEM\lst\..\..\PS8805_Generic.map) CLASSES (XDATA (X:0X400-X:0X5FF), HDATA (X:0X400-X:0X5FF)) SEGME
>> NTS (?CO?VERSIONNUM (C:2000H))


CPU MODE:     8051 MODE
MEMORY MODEL: SMALL


INPUT MODULES INCLUDED:
  .\OEM\Obj\STARTUP.obj (?C_STARTUP)
         COMMENT TYPE 0: AX51 V3.01
  .\OEM\Obj\MPU_init.obj (MPU_INIT)
         COMMENT TYPE 0: C51 V8.02
  .\OEM\Obj\MPU_util.obj (MPU_UTIL)
         COMMENT TYPE 0: C51 V8.02
  .\OEM\Obj\PD.obj (PD)
         COMMENT TYPE 0: C51 V8.02
  .\OEM\Obj\ll_MPU.obj (LL_MPU)
         COMMENT TYPE 0: C51 V8.02
  .\OEM\Obj\ll_Init.obj (LL_INIT)
         COMMENT TYPE 0: C51 V8.02
  .\OEM\Obj\timer0INT1.obj (TIMER0INT1)
         COMMENT TYPE 0: C51 V8.02
  .\OEM\Obj\timer1INT3.obj (TIMER1INT3)
         COMMENT TYPE 0: C51 V8.02
  .\OEM\Obj\ext0INT0.obj (EXT0INT0)
         COMMENT TYPE 0: C51 V8.02
  .\OEM\Obj\ext1INT2.obj (EXT1INT2)
         COMMENT TYPE 0: C51 V8.02
  .\OEM\Obj\mainloop.obj (MAINLOOP)
         COMMENT TYPE 0: C51 V8.02
  .\OEM\Obj\versionnum.obj (VERSIONNUM)
         COMMENT TYPE 0: C51 V8.02
  .\OEM\Obj\global.obj (GLOBAL)
         COMMENT TYPE 0: C51 V8.02
  C:\KEIL\C51\LIB\C51S.LIB (?C_INIT)
         COMMENT TYPE 1: A51 / ASM51 Assembler
  C:\KEIL\C51\LIB\C51S.LIB (?C?ILDIX)
         COMMENT TYPE 1: A51 / ASM51 Assembler


ACTIVE MEMORY CLASSES OF MODULE:  .\OEM\Obj\..\..\PS8805_Generic (?C_STARTUP)

BASE        START       END         USED      MEMORY CLASS
==========================================================
X:000000H   X:000400H   X:0005FFH   0000F9H   XDATA
X:000000H   X:000400H   X:0005FFH             HDATA
C:000000H   C:000000H   C:00FFFFH   001733H   CODE
I:000000H   I:000000H   I:0000FFH   000003H   IDATA
I:000000H   I:000000H   I:00007FH   00000CH   DATA
C:000000H   C:000000H   C:00FFFFH   00016CH   CONST


MEMORY MAP OF MODULE:  .\OEM\Obj\..\..\PS8805_Generic (?C_STARTUP)


START     STOP      LENGTH    ALIGN  RELOC    MEMORY CLASS   SEGMENT NAME
=========================================================================

* * * * * * * * * * *   D A T A   M E M O R Y   * * * * * * * * * * * * *
000000H   000007H   000008H   ---    AT..     DATA           "REG BANK 0"
000008H   00000BH   000004H   BYTE   UNIT     DATA           _DATA_GROUP_
LX51 LINKER/LOCATER V4.05                                                             04/27/2018  15:47:28  PAGE 2


00000CH   00000CH   000001H   BYTE   UNIT     IDATA          ?ID?_DELAY?PD
00000DH   00000DH   000001H   BYTE   UNIT     IDATA          _IDATA_GROUP_
00000EH   00000EH   000001H   BYTE   UNIT     IDATA          ?STACK

* * * * * * * * * * *   C O D E   M E M O R Y   * * * * * * * * * * * * *
000000H   000002H   000003H   ---    OFFS..   CODE           ?CO?STARTUP?3
000003H   000005H   000003H   BYTE   OFFS..   CODE           ?EXT0INT0?00003
000006H   000008H   000003H   BYTE   UNIT     CODE           ?PR?LL_MPU_DISABLEINT?LL_MPU
000009H   000009H   000001H   BYTE   UNIT     CODE           ?PR?MPU_ENABLEINT0?MPU_UTIL
00000AH   00000AH   000001H   BYTE   UNIT     CODE           ?PR?MPU_ENABLEINT1?MPU_UTIL
00000BH   00000DH   000003H   BYTE   OFFS..   CODE           ?TIMER0INT1?0000B
00000EH   000010H   000003H   BYTE   UNIT     CODE           ?PR?LL_MPU_ENABLEINT?LL_MPU
000011H   000012H   000002H   ---    ---      **GAP**
000013H   000015H   000003H   BYTE   OFFS..   CODE           ?EXT1INT2?00013
000016H   000018H   000003H   BYTE   UNIT     CODE           ?PR?LL_MPUINIT?LL_INIT
000019H   00001AH   000002H   ---    ---      **GAP**
00001BH   00001DH   000003H   BYTE   OFFS..   CODE           ?TIMER1INT3?0001B
00001EH   0011A9H   00118CH   BYTE   UNIT     CODE           ?PR?EXT1_INT?EXT1INT2
0011AAH   001356H   0001ADH   BYTE   UNIT     CODE           ?PR?PHYSICAL_LAYER_INIT?PD
001357H   0013F0H   00009AH   BYTE   UNIT     CODE           ?C_C51STARTUP
0013F1H   001470H   000080H   BYTE   UNIT     CODE           ?PR?VBUS_FORCE_DISCHARGE?PD
001471H   0014ECH   00007CH   BYTE   UNIT     CODE           ?PR?TIMER1_INT?TIMER1INT3
0014EDH   001555H   000069H   BYTE   UNIT     CODE           ?PR?EXT0_INT?EXT0INT0
001556H   0015AFH   00005AH   BYTE   UNIT     CODE           ?PR?MPU_SETINTMASK0?MPU_UTIL
0015B0H   001609H   00005AH   BYTE   UNIT     CODE           ?PR?MPU_SETINTMASK1?MPU_UTIL
00160AH   001648H   00003FH   BYTE   UNIT     CODE           ?PR?MAIN?MAINLOOP
001649H   00167AH   000032H   BYTE   UNIT     CODE           ?PR?TIMER0_IT?TIMER0INT1
00167BH   0016A3H   000029H   BYTE   UNIT     CODE           ?PR?_DELAY?PD
0016A4H   0016C4H   000021H   BYTE   UNIT     CODE           ?C_INITSEG
0016C5H   0016E1H   00001DH   BYTE   UNIT     CODE           ?PR?MPU_INIT?MPU_INIT
0016E2H   0016F7H   000016H   BYTE   UNIT     CODE           ?C?LIB_CODE
0016F8H   001708H   000011H   BYTE   UNIT     CODE           ?PR?_MPU_SETVERNUM?MPU_UTIL
001709H   001715H   00000DH   BYTE   UNIT     CODE           ?PR?MPU_DISABLEINT?MPU_UTIL
001716H   001721H   00000CH   BYTE   UNIT     CODE           ?PR?LL_MPU_SETINTMASK?LL_MPU
001722H   00172CH   00000BH   BYTE   UNIT     CODE           ?PR?MPU_ENABLEINT?MPU_UTIL
00172DH   001736H   00000AH   BYTE   UNIT     CODE           ?PR?LL_SETVERNUM?LL_INIT
001737H   001748H   000012H   BYTE   UNIT     CONST          ?CO?MPU_UTIL
001749H   001FFFH   0008B7H   ---    ---      **GAP**
002000H   002159H   00015AH   BYTE   UNIT     CONST          ?CO?VERSIONNUM

* * * * * * * * * * *  X D A T A   M E M O R Y  * * * * * * * * * * * * *
00005BH   00005BH   000001H   BYTE   OFFS..   XDATA          ?XD?MAINLOOP?218
00005CH   000063H   000008H   ---    ---      **GAP**
000064H   000064H   000001H   BYTE   OFFS..   XDATA          ?XD?GLOBAL?0
000065H   000106H   0000A2H   ---    ---      **GAP**
000107H   000107H   000001H   BYTE   OFFS..   XDATA          ?XD?MAINLOOP?209
000108H   000108H   000001H   ---    ---      **GAP**
000109H   000109H   000001H   BYTE   OFFS..   XDATA          ?XD?MAINLOOP?220
00010AH   00011FH   000016H   ---    ---      **GAP**
000120H   000120H   000001H   BYTE   OFFS..   XDATA          ?XD?MAINLOOP?210
000121H   000155H   000035H   ---    ---      **GAP**
000156H   000156H   000001H   BYTE   OFFS..   XDATA          ?XD?MAINLOOP?26
000157H   000185H   00002FH   ---    ---      **GAP**
000186H   000186H   000001H   BYTE   OFFS..   XDATA          ?XD?MAINLOOP?90
000187H   000192H   00000CH   ---    ---      **GAP**
000193H   000193H   000001H   BYTE   OFFS..   XDATA          ?XD?MAINLOOP?25
000194H   000194H   000001H   BYTE   OFFS..   XDATA          ?XD?MAINLOOP?20
000195H   0001C3H   00002FH   ---    ---      **GAP**
0001C4H   0001C4H   000001H   BYTE   OFFS..   XDATA          ?XD?MAINLOOP?216
0001C5H   0001C5H   000001H   BYTE   OFFS..   XDATA          ?XD?MAINLOOP?85
0001C6H   0001C6H   000001H   BYTE   OFFS..   XDATA          ?XD?MAINLOOP?161
0001C7H   0001E1H   00001BH   ---    ---      **GAP**
0001E2H   0001E2H   000001H   BYTE   OFFS..   XDATA          ?XD?MAINLOOP?63
0001E3H   0001E3H   000001H   BYTE   OFFS..   XDATA          ?XD?MAINLOOP?152
0001E4H   0001E4H   000001H   BYTE   OFFS..   XDATA          ?XD?MAINLOOP?5
LX51 LINKER/LOCATER V4.05                                                             04/27/2018  15:47:28  PAGE 3


0001E5H   0001E5H   000001H   BYTE   OFFS..   XDATA          ?XD?MAINLOOP?2
0001E6H   0001EFH   00000AH   ---    ---      **GAP**
0001F0H   0001F0H   000001H   BYTE   OFFS..   XDATA          ?XD?MAINLOOP?111
0001F1H   0001F1H   000001H   BYTE   OFFS..   XDATA          ?XD?MAINLOOP?107
0001F2H   0001F2H   000001H   BYTE   OFFS..   XDATA          ?XD?MAINLOOP?67
0001F3H   0001F3H   000001H   BYTE   OFFS..   XDATA          ?XD?MAINLOOP?60
0001F4H   000200H   00000DH   ---    ---      **GAP**
000201H   000201H   000001H   BYTE   OFFS..   XDATA          ?XD?MAINLOOP?66
000202H   000202H   000001H   ---    ---      **GAP**
000203H   000203H   000001H   BYTE   OFFS..   XDATA          ?XD?MAINLOOP?120
000204H   000204H   000001H   BYTE   OFFS..   XDATA          ?XD?MAINLOOP?139
000205H   000205H   000001H   BYTE   OFFS..   XDATA          ?XD?MAINLOOP?134
000206H   000206H   000001H   ---    ---      **GAP**
000207H   000207H   000001H   BYTE   OFFS..   XDATA          ?XD?MAINLOOP?151
000208H   000208H   000001H   ---    ---      **GAP**
000209H   000209H   000001H   BYTE   OFFS..   XDATA          ?XD?MAINLOOP?95
00020AH   00020AH   000001H   BYTE   OFFS..   XDATA          ?XD?MAINLOOP?177
00020BH   00020BH   000001H   BYTE   OFFS..   XDATA          ?XD?MAINLOOP?174
00020CH   00020CH   000001H   BYTE   OFFS..   XDATA          ?XD?MAINLOOP?186
00020DH   000210H   000004H   ---    ---      **GAP**
000211H   000211H   000001H   BYTE   OFFS..   XDATA          ?XD?MAINLOOP?207
000212H   000212H   000001H   ---    ---      **GAP**
000213H   000213H   000001H   BYTE   OFFS..   XDATA          ?XD?MAINLOOP?215
000214H   00021EH   00000BH   ---    ---      **GAP**
00021FH   00021FH   000001H   BYTE   OFFS..   XDATA          ?XD?MAINLOOP?142
000220H   000220H   000001H   BYTE   OFFS..   XDATA          ?XD?MAINLOOP?100
000221H   000221H   000001H   BYTE   OFFS..   XDATA          ?XD?MAINLOOP?119
000222H   000222H   000001H   BYTE   OFFS..   XDATA          ?XD?MAINLOOP?82
000223H   000223H   000001H   BYTE   OFFS..   XDATA          ?XD?MAINLOOP?225
000224H   000224H   000001H   BYTE   OFFS..   XDATA          ?XD?MAINLOOP?7
000225H   000225H   000001H   BYTE   OFFS..   XDATA          ?XD?MAINLOOP?11
000226H   000226H   000001H   BYTE   OFFS..   XDATA          ?XD?MAINLOOP?59
000227H   000227H   000001H   BYTE   OFFS..   XDATA          ?XD?MAINLOOP?224
000228H   000229H   000002H   ---    ---      **GAP**
00022AH   00022AH   000001H   BYTE   OFFS..   XDATA          ?XD?MAINLOOP?114
00022BH   00022DH   000003H   ---    ---      **GAP**
00022EH   00022EH   000001H   BYTE   OFFS..   XDATA          ?XD?MAINLOOP?106
00022FH   00022FH   000001H   BYTE   OFFS..   XDATA          ?XD?MAINLOOP?179
000230H   000244H   000015H   ---    ---      **GAP**
000245H   000245H   000001H   BYTE   OFFS..   XDATA          ?XD?MAINLOOP?198
000246H   000246H   000001H   BYTE   OFFS..   XDATA          ?XD?MAINLOOP?108
000247H   000247H   000001H   BYTE   OFFS..   XDATA          ?XD?MAINLOOP?204
000248H   00024EH   000007H   ---    ---      **GAP**
00024FH   00024FH   000001H   BYTE   OFFS..   XDATA          ?XD?MAINLOOP?93
000250H   000251H   000002H   ---    ---      **GAP**
000252H   000252H   000001H   BYTE   OFFS..   XDATA          ?XD?MAINLOOP?15
000253H   000271H   00001FH   ---    ---      **GAP**
000272H   000272H   000001H   BYTE   OFFS..   XDATA          ?XD?MAINLOOP?112
000273H   000273H   000001H   BYTE   OFFS..   XDATA          ?XD?MAINLOOP?201
000274H   000274H   000001H   BYTE   OFFS..   XDATA          ?XD?MAINLOOP?189
000275H   000275H   000001H   BYTE   OFFS..   XDATA          ?XD?MAINLOOP?54
000276H   000276H   000001H   BYTE   OFFS..   XDATA          ?XD?MAINLOOP?58
000277H   00029BH   000025H   ---    ---      **GAP**
00029CH   00029CH   000001H   BYTE   OFFS..   XDATA          ?XD?MAINLOOP?49
00029DH   00029DH   000001H   BYTE   OFFS..   XDATA          ?XD?MAINLOOP?97
00029EH   0002AFH   000012H   ---    ---      **GAP**
0002B0H   0002B0H   000001H   BYTE   OFFS..   XDATA          ?XD?MAINLOOP?64
0002B1H   0002B3H   000003H   ---    ---      **GAP**
0002B4H   0002B4H   000001H   BYTE   OFFS..   XDATA          ?XD?MAINLOOP?73
0002B5H   0002BFH   00000BH   ---    ---      **GAP**
0002C0H   0002C0H   000001H   BYTE   OFFS..   XDATA          ?XD?MAINLOOP?0
0002C1H   0002C1H   000001H   BYTE   OFFS..   XDATA          ?XD?MAINLOOP?101
0002C2H   0002C2H   000001H   BYTE   OFFS..   XDATA          ?XD?MAINLOOP?178
0002C3H   0002C3H   000001H   BYTE   OFFS..   XDATA          ?XD?MAINLOOP?169
0002C4H   0002C4H   000001H   BYTE   OFFS..   XDATA          ?XD?MAINLOOP?126
LX51 LINKER/LOCATER V4.05                                                             04/27/2018  15:47:28  PAGE 4


0002C5H   0002C5H   000001H   BYTE   OFFS..   XDATA          ?XD?MAINLOOP?136
0002C6H   0002C8H   000003H   ---    ---      **GAP**
0002C9H   0002C9H   000001H   BYTE   OFFS..   XDATA          ?XD?MAINLOOP?150
0002CAH   0002CAH   000001H   BYTE   OFFS..   XDATA          ?XD?MAINLOOP?137
0002CBH   0002CBH   000001H   BYTE   OFFS..   XDATA          ?XD?MAINLOOP?130
0002CCH   0002CCH   000001H   BYTE   OFFS..   XDATA          ?XD?MAINLOOP?184
0002CDH   0002CDH   000001H   BYTE   OFFS..   XDATA          ?XD?MAINLOOP?12
0002CEH   0002CFH   000002H   ---    ---      **GAP**
0002D0H   0002D0H   000001H   BYTE   OFFS..   XDATA          ?XD?MAINLOOP?4
0002D1H   0002D1H   000001H   BYTE   OFFS..   XDATA          ?XD?MAINLOOP?69
0002D2H   0002D2H   000001H   BYTE   OFFS..   XDATA          ?XD?MAINLOOP?62
0002D3H   0002D3H   000001H   BYTE   OFFS..   XDATA          ?XD?MAINLOOP?160
0002D4H   0002DDH   00000AH   ---    ---      **GAP**
0002DEH   0002DEH   000001H   BYTE   OFFS..   XDATA          ?XD?MAINLOOP?219
0002DFH   0002E8H   00000AH   ---    ---      **GAP**
0002E9H   0002E9H   000001H   BYTE   OFFS..   XDATA          ?XD?MAINLOOP?182
0002EAH   0002EAH   000001H   BYTE   OFFS..   XDATA          ?XD?MAINLOOP?65
0002EBH   0002EFH   000005H   ---    ---      **GAP**
0002F0H   0002F0H   000001H   BYTE   OFFS..   XDATA          ?XD?MAINLOOP?102
0002F1H   00030FH   00001FH   ---    ---      **GAP**
000310H   000310H   000001H   BYTE   OFFS..   XDATA          ?XD?MAINLOOP?145
000311H   000311H   000001H   BYTE   OFFS..   XDATA          ?XD?MAINLOOP?148
000312H   000312H   000001H   BYTE   OFFS..   XDATA          ?XD?MAINLOOP?173
000313H   000313H   000001H   BYTE   OFFS..   XDATA          ?XD?MAINLOOP?17
000314H   000314H   000001H   BYTE   OFFS..   XDATA          ?XD?MAINLOOP?190
000315H   000315H   000001H   BYTE   OFFS..   XDATA          ?XD?MAINLOOP?147
000316H   000317H   000002H   ---    ---      **GAP**
000318H   000318H   000001H   BYTE   OFFS..   XDATA          ?XD?MAINLOOP?113
000319H   000319H   000001H   BYTE   OFFS..   XDATA          ?XD?MAINLOOP?96
00031AH   00031AH   000001H   BYTE   OFFS..   XDATA          ?XD?MAINLOOP?104
00031BH   00031BH   000001H   BYTE   OFFS..   XDATA          ?XD?MAINLOOP?6
00031CH   00031CH   000001H   BYTE   OFFS..   XDATA          ?XD?MAINLOOP?44
00031DH   00031DH   000001H   BYTE   OFFS..   XDATA          ?XD?MAINLOOP?131
00031EH   00031EH   000001H   BYTE   OFFS..   XDATA          ?XD?MAINLOOP?159
00031FH   00031FH   000001H   BYTE   OFFS..   XDATA          ?XD?MAINLOOP?116
000320H   000322H   000003H   ---    ---      **GAP**
000323H   000323H   000001H   BYTE   OFFS..   XDATA          ?XD?MAINLOOP?3
000324H   00032DH   00000AH   ---    ---      **GAP**
00032EH   00032EH   000001H   BYTE   OFFS..   XDATA          ?XD?MAINLOOP?75
00032FH   00032FH   000001H   BYTE   OFFS..   XDATA          ?XD?MAINLOOP?76
000330H   000330H   000001H   BYTE   OFFS..   XDATA          ?XD?MAINLOOP?14
000331H   000331H   000001H   BYTE   OFFS..   XDATA          ?XD?MAINLOOP?71
000332H   000332H   000001H   BYTE   OFFS..   XDATA          ?XD?MAINLOOP?89
000333H   000333H   000001H   BYTE   OFFS..   XDATA          ?XD?MAINLOOP?166
000334H   000334H   000001H   BYTE   OFFS..   XDATA          ?XD?MAINLOOP?99
000335H   00034FH   00001BH   ---    ---      **GAP**
000350H   000350H   000001H   BYTE   OFFS..   XDATA          ?XD?MAINLOOP?222
000351H   000351H   000001H   BYTE   OFFS..   XDATA          ?XD?MAINLOOP?226
000352H   000352H   000001H   BYTE   OFFS..   XDATA          ?XD?MAINLOOP?156
000353H   000353H   000001H   BYTE   OFFS..   XDATA          ?XD?MAINLOOP?8
000354H   000354H   000001H   BYTE   OFFS..   XDATA          ?XD?MAINLOOP?181
000355H   00036FH   00001BH   ---    ---      **GAP**
000370H   000370H   000001H   BYTE   OFFS..   XDATA          ?XD?MAINLOOP?187
000371H   000371H   000001H   BYTE   OFFS..   XDATA          ?XD?MAINLOOP?180
000372H   000372H   000001H   BYTE   OFFS..   XDATA          ?XD?MAINLOOP?196
000373H   000373H   000001H   BYTE   OFFS..   XDATA          ?XD?MAINLOOP?185
000374H   000374H   000001H   BYTE   OFFS..   XDATA          ?XD?MAINLOOP?53
000375H   000375H   000001H   BYTE   OFFS..   XDATA          ?XD?MAINLOOP?40
000376H   000376H   000001H   BYTE   OFFS..   XDATA          ?XD?MAINLOOP?158
000377H   000377H   000001H   BYTE   OFFS..   XDATA          ?XD?MAINLOOP?144
000378H   000378H   000001H   BYTE   OFFS..   XDATA          ?XD?MAINLOOP?183
000379H   000379H   000001H   BYTE   OFFS..   XDATA          ?XD?MAINLOOP?175
00037AH   00037FH   000006H   ---    ---      **GAP**
000380H   000380H   000001H   BYTE   OFFS..   XDATA          ?XD?MAINLOOP?88
000381H   000381H   000001H   BYTE   OFFS..   XDATA          ?XD?MAINLOOP?193
LX51 LINKER/LOCATER V4.05                                                             04/27/2018  15:47:28  PAGE 5


000382H   000382H   000001H   BYTE   OFFS..   XDATA          ?XD?GLOBAL?1
*** OVERLAP ***
000382H   000382H   000001H   BYTE   OFFS..   XDATA          ?XD?MAINLOOP?13
000383H   000383H   000001H   BYTE   OFFS..   XDATA          ?XD?MAINLOOP?223
000384H   000384H   000001H   BYTE   OFFS..   XDATA          ?XD?MAINLOOP?153
000385H   000385H   000001H   BYTE   OFFS..   XDATA          ?XD?MAINLOOP?155
000386H   000386H   000001H   BYTE   OFFS..   XDATA          ?XD?MAINLOOP?157
000387H   000387H   000001H   ---    ---      **GAP**
000388H   000388H   000001H   BYTE   OFFS..   XDATA          ?XD?MAINLOOP?211
000389H   000389H   000001H   BYTE   OFFS..   XDATA          ?XD?MAINLOOP?213
00038AH   00038AH   000001H   BYTE   OFFS..   XDATA          ?XD?MAINLOOP?168
00038BH   00038BH   000001H   BYTE   OFFS..   XDATA          ?XD?MAINLOOP?171
00038CH   00038CH   000001H   BYTE   OFFS..   XDATA          ?XD?MAINLOOP?121
00038DH   00038DH   000001H   BYTE   OFFS..   XDATA          ?XD?MAINLOOP?123
00038EH   00038EH   000001H   BYTE   OFFS..   XDATA          ?XD?MAINLOOP?128
00038FH   00038FH   000001H   BYTE   OFFS..   XDATA          ?XD?MAINLOOP?87
000390H   00039DH   00000EH   ---    ---      **GAP**
00039EH   00039EH   000001H   BYTE   OFFS..   XDATA          ?XD?MAINLOOP?163
00039FH   00039FH   000001H   BYTE   OFFS..   XDATA          ?XD?MAINLOOP?165
0003A0H   0003A0H   000001H   BYTE   OFFS..   XDATA          ?XD?MAINLOOP?68
0003A1H   0003A1H   000001H   BYTE   OFFS..   XDATA          ?XD?MAINLOOP?70
0003A2H   0003A2H   000001H   BYTE   OFFS..   XDATA          ?XD?MAINLOOP?74
0003A3H   0003A3H   000001H   BYTE   OFFS..   XDATA          ?XD?MAINLOOP?78
0003A4H   0003A4H   000001H   BYTE   OFFS..   XDATA          ?XD?MAINLOOP?79
0003A5H   0003A5H   000001H   BYTE   OFFS..   XDATA          ?XD?MAINLOOP?80
0003A6H   0003A6H   000001H   BYTE   OFFS..   XDATA          ?XD?MAINLOOP?81
0003A7H   0003A7H   000001H   BYTE   OFFS..   XDATA          ?XD?MAINLOOP?83
0003A8H   0003A9H   000002H   ---    ---      **GAP**
0003AAH   0003AAH   000001H   BYTE   OFFS..   XDATA          ?XD?MAINLOOP?84
0003ABH   0003ABH   000001H   BYTE   OFFS..   XDATA          ?XD?MAINLOOP?86
0003ACH   0003ACH   000001H   BYTE   OFFS..   XDATA          ?XD?MAINLOOP?140
0003ADH   0003ADH   000001H   BYTE   OFFS..   XDATA          ?XD?MAINLOOP?143
0003AEH   0003AFH   000002H   ---    ---      **GAP**
0003B0H   0003B0H   000001H   BYTE   OFFS..   XDATA          ?XD?MAINLOOP?30
0003B1H   0003B1H   000001H   BYTE   OFFS..   XDATA          ?XD?MAINLOOP?33
0003B2H   0003B2H   000001H   BYTE   OFFS..   XDATA          ?XD?MAINLOOP?46
0003B3H   0003B3H   000001H   BYTE   OFFS..   XDATA          ?XD?MAINLOOP?50
0003B4H   0003B4H   000001H   BYTE   OFFS..   XDATA          ?XD?MAINLOOP?98
0003B5H   0003B5H   000001H   BYTE   OFFS..   XDATA          ?XD?MAINLOOP?94
0003B6H   0003B6H   000001H   BYTE   OFFS..   XDATA          ?XD?MAINLOOP?110
0003B7H   0003B9H   000003H   ---    ---      **GAP**
0003BAH   0003BAH   000001H   BYTE   OFFS..   XDATA          ?XD?MAINLOOP?217
0003BBH   0003BBH   000001H   BYTE   OFFS..   XDATA          ?XD?MAINLOOP?221
0003BCH   0003BCH   000001H   BYTE   OFFS..   XDATA          ?XD?MAINLOOP?52
0003BDH   0003BDH   000001H   BYTE   OFFS..   XDATA          ?XD?MAINLOOP?55
0003BEH   0003BEH   000001H   BYTE   OFFS..   XDATA          ?XD?MAINLOOP?57
0003BFH   0003BFH   000001H   BYTE   OFFS..   XDATA          ?XD?MAINLOOP?61
0003C0H   0003C0H   000001H   BYTE   OFFS..   XDATA          ?XD?MAINLOOP?192
0003C1H   0003C1H   000001H   BYTE   OFFS..   XDATA          ?XD?MAINLOOP?23
0003C2H   0003D4H   000013H   ---    ---      **GAP**
0003D5H   0003D5H   000001H   BYTE   OFFS..   XDATA          ?XD?MAINLOOP?162
0003D6H   0003D6H   000001H   BYTE   OFFS..   XDATA          ?XD?MAINLOOP?164
0003D7H   0003D7H   000001H   BYTE   OFFS..   XDATA          ?XD?MAINLOOP?167
0003D8H   0003D8H   000001H   BYTE   OFFS..   XDATA          ?XD?MAINLOOP?170
0003D9H   0003D9H   000001H   BYTE   OFFS..   XDATA          ?XD?MAINLOOP?172
0003DAH   0003DCH   000003H   ---    ---      **GAP**
0003DDH   0003DDH   000001H   BYTE   OFFS..   XDATA          ?XD?MAINLOOP?199
0003DEH   0003FFH   000022H   ---    ---      **GAP**
000400H   000412H   000013H   BYTE   UNIT     XDATA          ?XD?GLOBAL
000413H   0005FFH   0001EDH   ---    ---      **GAP**
000600H   000600H   000001H   BYTE   OFFS..   XDATA          ?XD?MAINLOOP?133
000601H   000601H   000001H   BYTE   OFFS..   XDATA          ?XD?MAINLOOP?135
000602H   000602H   000001H   BYTE   OFFS..   XDATA          ?XD?MAINLOOP?138
000603H   000603H   000001H   BYTE   OFFS..   XDATA          ?XD?MAINLOOP?141
000604H   000604H   000001H   BYTE   OFFS..   XDATA          ?XD?MAINLOOP?146
LX51 LINKER/LOCATER V4.05                                                             04/27/2018  15:47:28  PAGE 6


000605H   000605H   000001H   BYTE   OFFS..   XDATA          ?XD?MAINLOOP?149
000606H   000606H   000001H   BYTE   OFFS..   XDATA          ?XD?MAINLOOP?154
000607H   000607H   000001H   BYTE   OFFS..   XDATA          ?XD?MAINLOOP?92
000608H   000608H   000001H   BYTE   OFFS..   XDATA          ?XD?MAINLOOP?188
000609H   000609H   000001H   BYTE   OFFS..   XDATA          ?XD?MAINLOOP?191
00060AH   00060AH   000001H   BYTE   OFFS..   XDATA          ?XD?MAINLOOP?195
00060BH   00060BH   000001H   BYTE   OFFS..   XDATA          ?XD?MAINLOOP?197
00060CH   00060CH   000001H   BYTE   OFFS..   XDATA          ?XD?MAINLOOP?200
00060DH   00060DH   000001H   BYTE   OFFS..   XDATA          ?XD?MAINLOOP?203
00060EH   00060EH   000001H   BYTE   OFFS..   XDATA          ?XD?MAINLOOP?206
00060FH   00060FH   000001H   ---    ---      **GAP**
000610H   000610H   000001H   BYTE   OFFS..   XDATA          ?XD?MAINLOOP?29
000611H   000611H   000001H   BYTE   OFFS..   XDATA          ?XD?MAINLOOP?32
000612H   000612H   000001H   BYTE   OFFS..   XDATA          ?XD?MAINLOOP?35
000613H   000613H   000001H   BYTE   OFFS..   XDATA          ?XD?MAINLOOP?37
000614H   000614H   000001H   BYTE   OFFS..   XDATA          ?XD?MAINLOOP?39
000615H   000615H   000001H   BYTE   OFFS..   XDATA          ?XD?MAINLOOP?43
000616H   00061FH   00000AH   ---    ---      **GAP**
000620H   000620H   000001H   BYTE   OFFS..   XDATA          ?XD?MAINLOOP?16
000621H   000621H   000001H   BYTE   OFFS..   XDATA          ?XD?MAINLOOP?18
000622H   000622H   000001H   BYTE   OFFS..   XDATA          ?XD?MAINLOOP?19
000623H   000623H   000001H   BYTE   OFFS..   XDATA          ?XD?MAINLOOP?22
000624H   000624H   000001H   BYTE   OFFS..   XDATA          ?XD?MAINLOOP?24
000625H   000625H   000001H   BYTE   OFFS..   XDATA          ?XD?MAINLOOP?28
000626H   000627H   000002H   ---    ---      **GAP**
000628H   000628H   000001H   BYTE   OFFS..   XDATA          ?XD?MAINLOOP?27
000629H   000629H   000001H   BYTE   OFFS..   XDATA          ?XD?MAINLOOP?31
00062AH   00062AH   000001H   BYTE   OFFS..   XDATA          ?XD?MAINLOOP?34
00062BH   00062BH   000001H   BYTE   OFFS..   XDATA          ?XD?MAINLOOP?36
00062CH   00062CH   000001H   BYTE   OFFS..   XDATA          ?XD?MAINLOOP?38
00062DH   00062DH   000001H   BYTE   OFFS..   XDATA          ?XD?MAINLOOP?42
00062EH   00062FH   000002H   ---    ---      **GAP**
000630H   000630H   000001H   BYTE   OFFS..   XDATA          ?XD?MAINLOOP?72
000631H   000631H   000001H   BYTE   OFFS..   XDATA          ?XD?MAINLOOP?77
000632H   000632H   000001H   BYTE   OFFS..   XDATA          ?XD?MAINLOOP?91
000633H   000633H   000001H   BYTE   OFFS..   XDATA          ?XD?MAINLOOP?214
000634H   000634H   000001H   BYTE   OFFS..   XDATA          ?XD?MAINLOOP?129
000635H   000635H   000001H   BYTE   OFFS..   XDATA          ?XD?MAINLOOP?10
000636H   000636H   000001H   BYTE   OFFS..   XDATA          ?XD?MAINLOOP?21
000637H   000637H   000001H   BYTE   OFFS..   XDATA          ?XD?MAINLOOP?48
000638H   000638H   000001H   BYTE   OFFS..   XDATA          ?XD?MAINLOOP?176
000639H   000639H   000001H   BYTE   OFFS..   XDATA          ?XD?MAINLOOP?122
00063AH   00063AH   000001H   BYTE   OFFS..   XDATA          ?XD?MAINLOOP?212
00063BH   00063BH   000001H   BYTE   OFFS..   XDATA          ?XD?MAINLOOP?125
00063CH   00063CH   000001H   ---    ---      **GAP**
00063DH   00063DH   000001H   BYTE   OFFS..   XDATA          ?XD?MAINLOOP?132
00063EH   00063EH   000001H   BYTE   OFFS..   XDATA          ?XD?MAINLOOP?103
00063FH   00063FH   000001H   BYTE   OFFS..   XDATA          ?XD?MAINLOOP?127
000640H   000640H   000001H   BYTE   OFFS..   XDATA          ?XD?MAINLOOP?205
000641H   000641H   000001H   BYTE   OFFS..   XDATA          ?XD?MAINLOOP?194
000642H   000642H   000001H   BYTE   OFFS..   XDATA          ?XD?MAINLOOP?109
000643H   000643H   000001H   BYTE   OFFS..   XDATA          ?XD?MAINLOOP?105
000644H   000644H   000001H   BYTE   OFFS..   XDATA          ?XD?MAINLOOP?124
000645H   000645H   000001H   BYTE   OFFS..   XDATA          ?XD?MAINLOOP?117
000646H   000646H   000001H   BYTE   OFFS..   XDATA          ?XD?MAINLOOP?208
000647H   000647H   000001H   BYTE   OFFS..   XDATA          ?XD?MAINLOOP?202
000648H   000648H   000001H   BYTE   OFFS..   XDATA          ?XD?MAINLOOP?118
000649H   000649H   000001H   BYTE   OFFS..   XDATA          ?XD?MAINLOOP?115
00064AH   00064AH   000001H   BYTE   OFFS..   XDATA          ?XD?MAINLOOP?9
00064BH   00064BH   000001H   BYTE   OFFS..   XDATA          ?XD?MAINLOOP?1
00064CH   00064CH   000001H   BYTE   OFFS..   XDATA          ?XD?MAINLOOP?41
00064DH   00064DH   000001H   BYTE   OFFS..   XDATA          ?XD?MAINLOOP?45
00064EH   00064EH   000001H   BYTE   OFFS..   XDATA          ?XD?MAINLOOP?47
00064FH   00064FH   000001H   BYTE   OFFS..   XDATA          ?XD?MAINLOOP?51
000650H   000650H   000001H   BYTE   OFFS..   XDATA          ?XD?MAINLOOP?56
LX51 LINKER/LOCATER V4.05                                                             04/27/2018  15:47:28  PAGE 7


000651H   000651H   000001H   BYTE   OFFS..   XDATA          ?XD?MAINLOOP?227



OVERLAY MAP OF MODULE:   .\OEM\Obj\..\..\PS8805_Generic (?C_STARTUP)


FUNCTION/MODULE                BIT_GROUP   DATA_GROUP   IDATA_GROUP
--> CALLED FUNCTION/MODULE    START  STOP  START  STOP  START  STOP
===================================================================
?C_C51STARTUP                 ----- -----  ----- -----  ----- -----
  +--> ?PR?MAIN?MAINLOOP
  +--> ?C_INITSEG

MAIN/MAINLOOP                 ----- -----  ----- -----  ----- -----
  +--> ?PR?LL_MPU_DISABLEINT?LL_MPU
  +--> ?PR?LL_MPU_SETINTMASK?LL_MPU
  +--> ?PR?LL_MPUINIT?LL_INIT
  +--> ?PR?LL_MPU_ENABLEINT?LL_MPU
  +--> ?PR?PHYSICAL_LAYER_INIT?PD
  +--> ?PR?LL_SETVERNUM?LL_INIT
  +--> ?PR?VBUS_FORCE_DISCHARGE?PD

LL_MPU_DISABLEINT/LL_MPU      ----- -----  ----- -----  ----- -----
  +--> ?PR?MPU_DISABLEINT?MPU_UTIL

MPU_DISABLEINT/MPU_UTIL       ----- -----  ----- -----  ----- -----

LL_MPU_SETINTMASK/LL_MPU      ----- -----  ----- -----  ----- -----
  +--> ?PR?MPU_SETINTMASK0?MPU_UTIL
  +--> ?PR?MPU_SETINTMASK1?MPU_UTIL
  +--> ?PR?MPU_ENABLEINT0?MPU_UTIL
  +--> ?PR?MPU_ENABLEINT1?MPU_UTIL

MPU_SETINTMASK0/MPU_UTIL      ----- -----  ----- -----  000DH 000DH
  +--> ?CO?MPU_UTIL

?CO?MPU_UTIL                  ----- -----  ----- -----  ----- -----

MPU_SETINTMASK1/MPU_UTIL      ----- -----  ----- -----  000DH 000DH
  +--> ?CO?MPU_UTIL

MPU_ENABLEINT0/MPU_UTIL       ----- -----  ----- -----  ----- -----

MPU_ENABLEINT1/MPU_UTIL       ----- -----  ----- -----  ----- -----

LL_MPUINIT/LL_INIT            ----- -----  ----- -----  ----- -----
  +--> ?PR?MPU_INIT?MPU_INIT

MPU_INIT/MPU_INIT             ----- -----  ----- -----  ----- -----

LL_MPU_ENABLEINT/LL_MPU       ----- -----  ----- -----  ----- -----
  +--> ?PR?MPU_ENABLEINT?MPU_UTIL

MPU_ENABLEINT/MPU_UTIL        ----- -----  ----- -----  ----- -----

PHYSICAL_LAYER_INIT/PD        ----- -----  ----- -----  ----- -----

LL_SETVERNUM/LL_INIT          ----- -----  ----- -----  ----- -----
  +--> ?PR?_MPU_SETVERNUM?MPU_UTIL

_MPU_SETVERNUM/MPU_UTIL       ----- -----  0008H 000BH  ----- -----

VBUS_FORCE_DISCHARGE/PD       ----- -----  ----- -----  ----- -----

LX51 LINKER/LOCATER V4.05                                                             04/27/2018  15:47:28  PAGE 8


?C_INITSEG                    ----- -----  ----- -----  ----- -----

*** NEW ROOT ****************

TIMER0_IT/TIMER0INT1          ----- -----  ----- -----  ----- -----

*** NEW ROOT ****************

TIMER1_INT/TIMER1INT3         ----- -----  ----- -----  ----- -----

*** NEW ROOT ****************

EXT0_INT/EXT0INT0             ----- -----  ----- -----  ----- -----

*** NEW ROOT ****************

EXT1_INT/EXT1INT2             ----- -----  ----- -----  ----- -----



PUBLIC SYMBOLS OF MODULE:  .\OEM\Obj\..\..\PS8805_Generic (?C_STARTUP)


      VALUE       CLASS    TYPE      PUBLIC SYMBOL NAME
      =================================================
      00000008H   DATA     BYTE      ?_MPU_SetVerNum?BYTE
      00000000H   NUMBER   ---       ?C?CODESEG
      010016E2H   CODE     ---       ?C?ILDIX
      00000000H   NUMBER   ---       ?C?XDATASEG
      010013ACH   CODE     ---       ?C_START
      01000000H   CODE     NEAR LAB  ?C_STARTUP
      0100167BH   CODE     ---       _Delay
      010016F8H   CODE     ---       _MPU_SetVerNum
*SFR* 000000D0H.6 DATA     BIT       AC
*SFR* 000000E0H   DATA     BYTE      ACC
      020002B0H   XDATA    BYTE      ADDRCFG0
      020002B4H   XDATA    BYTE      ADDRCFG4
      02000382H   XDATA    BYTE      ALERT_CLR_ADDR_SET
      02000313H   XDATA    BYTE      ALERT_MASK_HIGH
      02000312H   XDATA    BYTE      ALERT_MASK_LOW
      0200039EH   XDATA    BYTE      ALERT_MASK_REG_0
      0200039FH   XDATA    BYTE      ALERT_MASK_REG_1
      02000310H   XDATA    BYTE      ALERT_STATUS_1
      02000311H   XDATA    BYTE      ALERT_STATUS_2
      02000384H   XDATA    BYTE      ALERT_STATUS_3
      02000385H   XDATA    BYTE      ALERT_STATUS_4
      02000386H   XDATA    BYTE      ALERT_STATUS_5
      02000201H   XDATA    BYTE      AOI_REG_ANATOP_15_8
      02000203H   XDATA    BYTE      AOI_REG_ANATOP_31_24
      02000204H   XDATA    BYTE      AOI_REG_ANATOP_39_32
      02000205H   XDATA    BYTE      AOI_REG_ANATOP_47_40
      02000207H   XDATA    BYTE      AOI_REG_ANATOP_63_56
      02000209H   XDATA    BYTE      AOI_REG_PDC_15_8
      0200020AH   XDATA    BYTE      AOI_REG_PDC_23_16
      0200020BH   XDATA    BYTE      AOI_REG_PDC_31_24
      0200020CH   XDATA    BYTE      AOI_REG_PDC_39_32
      02000211H   XDATA    BYTE      AOI_REG_PDC_79_72
      02000213H   XDATA    BYTE      AOI_REG_PDC_95_88
      02000120H   XDATA    BYTE      AOP_REG_ANATOP_7_0
      02000107H   XDATA    BYTE      AOP_REG_PDC_63_56
      02000109H   XDATA    BYTE      AOP_REG_PDC_79_72
*SFR* 000000F0H   DATA     BYTE      B
      020003BCH   XDATA    BYTE      BIST_CONT_MODE_BYTE0
      020003BDH   XDATA    BYTE      BIST_CONT_MODE_BYTE1
      020003BEH   XDATA    BYTE      BIST_CONT_MODE_BYTE2
LX51 LINKER/LOCATER V4.05                                                             04/27/2018  15:47:28  PAGE 9


      020003BFH   XDATA    BYTE      BIST_CONT_MODE_CTR
      020003A0H   XDATA    BYTE      BMC_PHY_CTR0
      020003A1H   XDATA    BYTE      BMC_PHY_CTR1
      020003ACH   XDATA    BYTE      BMC_PHY_CTR10
      020003ADH   XDATA    BYTE      BMC_PHY_CTR11
      020003A2H   XDATA    BYTE      BMC_PHY_CTR2
      020003A3H   XDATA    BYTE      BMC_PHY_CTR3
      020003A4H   XDATA    BYTE      BMC_PHY_CTR4
      020003A5H   XDATA    BYTE      BMC_PHY_CTR5
      020003A6H   XDATA    BYTE      BMC_PHY_CTR6
      020003A7H   XDATA    BYTE      BMC_PHY_CTR7
      020003AAH   XDATA    BYTE      BMC_PHY_CTR8
      020003ABH   XDATA    BYTE      BMC_PHY_CTR9
      0200063FH   XDATA    BYTE      CC_DET_DBG_OUT
      0200063EH   XDATA    BYTE      CC_DET_DBG_SEL
      02000628H   XDATA    BYTE      CC_DET_IRQ_INT0
      02000629H   XDATA    BYTE      CC_DET_IRQ_INT1
      0200062AH   XDATA    BYTE      CC_DET_IRQ_INT2
      0200062BH   XDATA    BYTE      CC_DET_IRQ_INT3
      0200062CH   XDATA    BYTE      CC_DET_IRQ_INT4
      0200062DH   XDATA    BYTE      CC_DET_IRQ_INT5
      02000620H   XDATA    BYTE      CC_DET_IRQ_STATUS0
      02000621H   XDATA    BYTE      CC_DET_IRQ_STATUS1
      02000622H   XDATA    BYTE      CC_DET_IRQ_STATUS2
      02000623H   XDATA    BYTE      CC_DET_IRQ_STATUS3
      02000624H   XDATA    BYTE      CC_DET_IRQ_STATUS4
      02000625H   XDATA    BYTE      CC_DET_IRQ_STATUS5
      0200031DH   XDATA    BYTE      CC_STATUS
*SFR* 000000CEH   DATA     BYTE      CCEN
*SFR* 000000C3H   DATA     BYTE      CCH1
*SFR* 000000C5H   DATA     BYTE      CCH2
*SFR* 000000C7H   DATA     BYTE      CCH3
*SFR* 000000C2H   DATA     BYTE      CCL1
*SFR* 000000C4H   DATA     BYTE      CCL2
*SFR* 000000C6H   DATA     BYTE      CCL3
      020001F1H   XDATA    BYTE      CHIP_ID_H
      020001F0H   XDATA    BYTE      CHIP_ID_L
*SFR* 0000008EH   DATA     BYTE      CKCON
      02000323H   XDATA    BYTE      COMMAND
      02000318H   XDATA    BYTE      CONFIG_STANDARD_OUTPUT
      020002DEH   XDATA    BYTE      CTL_DEBUG_SEL
      0200029DH   XDATA    BYTE      CTL_IRQ
      0200029CH   XDATA    BYTE      CTLIRQ_CTL
*SFR* 000000D0H.7 DATA     BIT       CY
      020002E9H   XDATA    BYTE      DEBUG_IN
      0200024FH   XDATA    BYTE      DEBUG_SEL
      0200064CH   XDATA    BYTE      DEVICE_CAPABILITIES_1
      0200064DH   XDATA    BYTE      DEVICE_CAPABILITIES_2
      0200064EH   XDATA    BYTE      DEVICE_CAPABILITIES_3
      0200064FH   XDATA    BYTE      DEVICE_CAPABILITIES_4
      02000645H   XDATA    BYTE      DEVICE_ID_H
      02000644H   XDATA    BYTE      DEVICE_ID_L
*SFR* 00000083H   DATA     BYTE      DPH
*SFR* 00000083H   DATA     BYTE      DPH0
*SFR* 00000082H   DATA     BYTE      DPL
*SFR* 00000082H   DATA     BYTE      DPL0
*SFR* 00000093H   DATA     BYTE      DPP
*SFR* 00000093H   DATA     BYTE      DPX0
*SFR* 000000A8H.7 DATA     BIT       EA
*SFR* 000000E3H   DATA     BYTE      ECNT0
*SFR* 000000E4H   DATA     BYTE      ECNT1
*SFR* 000000E5H   DATA     BYTE      ECNT2
*SFR* 000000F3H   DATA     BYTE      ECNT20
*SFR* 000000F4H   DATA     BYTE      ECNT21
*SFR* 000000F5H   DATA     BYTE      ECNT22
LX51 LINKER/LOCATER V4.05                                                             04/27/2018  15:47:28  PAGE 10


*SFR* 000000F6H   DATA     BYTE      ECNT23
*SFR* 000000F7H   DATA     BYTE      ECNT24
*SFR* 000000E6H   DATA     BYTE      ECNT3
*SFR* 000000E7H   DATA     BYTE      ECNT4
*SFR* 000000D9H   DATA     BYTE      ECNTCON
*SFR* 000000DAH   DATA     BYTE      ECNTCON2
*SFR* 000000E8H   DATA     BYTE      EIE
*SFR* 00000091H   DATA     BYTE      EIF
*SFR* 000000F8H   DATA     BYTE      EIP
*SFR* 000000A8H.4 DATA     BIT       ES
*SFR* 000000A8H.4 DATA     BIT       ES0
*SFR* 000000A8H.1 DATA     BIT       ET0
*SFR* 000000A8H.3 DATA     BIT       ET1
*SFR* 000000E8H.4 DATA     BIT       EWDI
*SFR* 000000D8H.1 DATA     BIT       EWT
*SFR* 000000A8H   DATA     BIT       EX0
*SFR* 000000A8H.2 DATA     BIT       EX1
*SFR* 000000E8H   DATA     BIT       EX2
*SFR* 000000E8H.1 DATA     BIT       EX3
*SFR* 000000E8H.2 DATA     BIT       EX4
*SFR* 000000E8H.3 DATA     BIT       EX5
      010014EDH   CODE     ---       ext0_INT
      0100001EH   CODE     ---       ext1_INT
*SFR* 000000D0H.5 DATA     BIT       F0
*SFR* 000000D0H.1 DATA     BIT       F1
      0200031BH   XDATA    BYTE      FAULT_CONTROL
      0200031FH   XDATA    BYTE      FAULT_STATUS
      02000315H   XDATA    BYTE      FAULT_STATUS_MASK
      02000638H   XDATA    BYTE      FAULT_STATUS_TRIG
      020002D3H   XDATA    BYTE      FROM_MPU_RDATA
      02000252H   XDATA    BYTE      FUNC_IRQ_MASK
      02000272H   XDATA    BYTE      FUNC_IRQ_STATUS
      01002000H   CONST    ---       g_sProductID
      0100211AH   CONST    ---       g_uccBootloaderString
      01002020H   CONST    ---       g_uccVersionDescription
      0100201DH   CONST    BYTE      g_uccVersionNumMajor
      0100201EH   CONST    BYTE      g_uccVersionNumMiddle
      0100201FH   CONST    BYTE      g_uccVersionNumMinor
      02000408H   XDATA    BYTE      g_ucTick
      02000407H   XDATA    BYTE      g_ucTicks
      0200040BH   XDATA    BYTE      g_ucxDisConnIgnore
      02000405H   XDATA    BYTE      g_ucxExitSample
      0200040CH   XDATA    BYTE      g_ucxRaDisconnCnt
      02000412H   XDATA    BYTE      g_ucxRole_Control
      02000400H   XDATA    BYTE      g_ucxRpVal
      02000406H   XDATA    BYTE      g_ucxVBUS_Force_Discharge
      02000409H   XDATA    WORD      g_usx_VBUS_SINK_DISCONNECT
      02000410H   XDATA    WORD      g_usx_VBUS_STOP_DISCHARGE
      02000401H   XDATA    WORD      g_usx_VBUS_VOLTAGE_ALARM_HI
      02000403H   XDATA    WORD      g_usx_VBUS_VOLTAGE_ALARM_LO
      02000064H   XDATA    BYTE      g_vucxProjectID
      02000382H   XDATA    BYTE      g_vucxVersion
      020003B5H   XDATA    BYTE      GDCRC_HEADER_BYTE_H
      020003B4H   XDATA    BYTE      GDCRC_HEADER_BYTE_L
      020003B0H   XDATA    BYTE      GDCRC_TIMER_BYTE0
      020003B1H   XDATA    BYTE      GDCRC_TIMER_BYTE1
      0200038AH   XDATA    BYTE      GOODCRC_BUS_IDLE_TIMER_BYTE_0
      0200038BH   XDATA    BYTE      GOODCRC_BUS_IDLE_TIMER_BYTE_1
      020003B2H   XDATA    BYTE      GOODCRC_RECEIVE_TIMER_BYTE0
      020003B3H   XDATA    BYTE      GOODCRC_RECEIVE_TIMER_BYTE1
      02000276H   XDATA    BYTE      GPIO_RD_BACK
      020003B6H   XDATA    BYTE      HD_CB_RTY_COUNT
      020003BAH   XDATA    BYTE      HD_RST_RTY_TIMER_BYTE0
      020003BBH   XDATA    BYTE      HD_RST_RTY_TIMER_BYTE1
      02000388H   XDATA    BYTE      HD_RST_SEND_RDY_TIMER_BYTE0
LX51 LINKER/LOCATER V4.05                                                             04/27/2018  15:47:28  PAGE 11


      02000389H   XDATA    BYTE      HD_RST_SEND_RDY_TIMER_BYTE1
      02000273H   XDATA    BYTE      I2C_OFFSET
      02000274H   XDATA    BYTE      I2C_WRDATA
*SFR* 000000C8H.6 DATA     BIT       I3FR
*SFR* 0000009EH   DATA     BYTE      IDXL
*SFR* 000000A8H   DATA     BYTE      IE
*SFR* 00000088H.1 DATA     BIT       IE0
*SFR* 00000088H.3 DATA     BIT       IE1
*SFR* 000000D8H.4 DATA     BIT       INT5F
*SFR* 000000D8H.5 DATA     BIT       INT6F
*SFR* 000000D8H.6 DATA     BIT       INT7F
*SFR* 000000D8H.7 DATA     BIT       INT8F
*SFR* 000000B8H   DATA     BYTE      IP
*SFR* 00000088H   DATA     BIT       IT0
*SFR* 00000088H.2 DATA     BIT       IT1
      01000006H   CODE     ---       ll_MPU_DisableINT
      0100000EH   CODE     ---       ll_MPU_EnableINT
      01001716H   CODE     ---       ll_MPU_SetINTMask
      01000016H   CODE     ---       ll_MPUInit
      0100172DH   CODE     ---       ll_SetVerNum
      0100160AH   CODE     ---       main
*SFR* 0000008FH   DATA     BYTE      MDH
      0200032EH   XDATA    BYTE      MESSAGE_HEADER_INFO
      020002C5H   XDATA    BYTE      MI2C_CTL
      020002C4H   XDATA    BYTE      MI2C_LEN
      020002C1H   XDATA    BYTE      MI2C_OFFSET
      020002C3H   XDATA    BYTE      MI2C_RDATA
      020002C2H   XDATA    BYTE      MI2C_WDATA
      020002C0H   XDATA    BYTE      MI2CSLV_ADDR
      020002F0H   XDATA    BYTE      MPU_CTL
      01001709H   CODE     ---       MPU_DisableINT
      01001722H   CODE     ---       MPU_EnableINT
      01000009H   CODE     ---       MPU_EnableINT0
      0100000AH   CODE     ---       MPU_EnableINT1
      020002D0H   XDATA    BYTE      MPU_HOLD_MODE
      010016C5H   CODE     ---       MPU_Init
      01001556H   CODE     ---       MPU_SetINTMask0
      010015B0H   CODE     ---       MPU_SetINTMask1
*SFR* 000000EAH   DATA     BYTE      MXAX
      02000639H   XDATA    BYTE      OTHER_CTRL0
      0200063BH   XDATA    BYTE      OTHER_CTRL1
      0200063DH   XDATA    BYTE      OTHER_CTRL3
*SFR* 000000D0H.2 DATA     BIT       OV
*SFR* 000000D0H   DATA     BIT       P
*SFR* 00000087H   DATA     BYTE      PCON
      0200064BH   XDATA    BYTE      PD_INTERFACE_REV_H
      0200064AH   XDATA    BYTE      PD_INTERFACE_REV_L
      020001E3H   XDATA    BYTE      PDC_STAT_15_8
      020001E4H   XDATA    BYTE      PDC_STAT_23_16
      020001E5H   XDATA    BYTE      PDC_STAT_31_24
      020001E2H   XDATA    BYTE      PDC_STAT_7_0
      010011AAH   CODE     ---       Physical_Layer_Init
      0200031CH   XDATA    BYTE      POWER_CONTROL
      0200005BH   XDATA    BYTE      POWER_ON_RESET
      0200031EH   XDATA    BYTE      POWER_STATUS
      02000314H   XDATA    BYTE      POWER_STATUS_MASK
*SFR* 000000A0H   DATA     BYTE      PPAGE_SFR
      02000643H   XDATA    BYTE      PRODUCT_ID_H
      02000642H   XDATA    BYTE      PRODUCT_ID_L
*SFR* 000000B8H.4 DATA     BIT       PS
*SFR* 000000B8H.4 DATA     BIT       PS0
*SFR* 000000D0H   DATA     BYTE      PSW
*SFR* 000000B8H.1 DATA     BIT       PT0
*SFR* 000000B8H.3 DATA     BIT       PT1
*SFR* 000000F8H.5 DATA     BIT       PWDI
LX51 LINKER/LOCATER V4.05                                                             04/27/2018  15:47:28  PAGE 12


*SFR* 000000B8H   DATA     BIT       PX0
*SFR* 000000B8H.2 DATA     BIT       PX1
*SFR* 000000F8H   DATA     BIT       PX2
*SFR* 000000F8H.1 DATA     BIT       PX3
*SFR* 000000F8H.2 DATA     BIT       PX4
*SFR* 000000F8H.3 DATA     BIT       PX5
*SFR* 000000F8H.4 DATA     BIT       PX6
*SFR* 00000098H.2 DATA     BIT       RB08
*SFR* 00000098H.2 DATA     BIT       RB8
*SFR* 000000CBH   DATA     BYTE      RCRH
*SFR* 000000CAH   DATA     BYTE      RCRL
      020002CBH   XDATA    BYTE      READSPI_ADDRE
      020002CAH   XDATA    BYTE      READSPI_ADDRH
      020002C9H   XDATA    BYTE      READSPI_ADDRL
      020002CDH   XDATA    BYTE      READSPI_DATA
      020002CCH   XDATA    BYTE      READSPI_READY
      02000330H   XDATA    BYTE      RECEIVE_BYTE_COUNT
      0200032FH   XDATA    BYTE      RECEIVE_DETECT
      02000334H   XDATA    BYTE      RECEIVED_DATA_OBJECTS
      02000333H   XDATA    BYTE      RECEIVED_HEADER_HIGH
      02000332H   XDATA    BYTE      RECEIVED_HEADER_LOW
      02000630H   XDATA    BYTE      REG_CC1_DCC
      02000631H   XDATA    BYTE      REG_CC2_DCC
      02000610H   XDATA    BYTE      REG_CC_DET_INT_MASK0
      02000611H   XDATA    BYTE      REG_CC_DET_INT_MASK1
      02000612H   XDATA    BYTE      REG_CC_DET_INT_MASK2
      02000613H   XDATA    BYTE      REG_CC_DET_INT_MASK3
      02000614H   XDATA    BYTE      REG_CC_DET_INT_MASK4
      02000615H   XDATA    BYTE      REG_CC_DET_INT_MASK5
      02000636H   XDATA    BYTE      REG_CC_STATUS
      02000600H   XDATA    BYTE      REG_DEBOUNCE_CTRL0
      02000601H   XDATA    BYTE      REG_DEBOUNCE_CTRL1
      02000602H   XDATA    BYTE      REG_DEBOUNCE_CTRL2
      02000603H   XDATA    BYTE      REG_DEBOUNCE_CTRL3
      02000604H   XDATA    BYTE      REG_DEBOUNCE_CTRL4
      02000605H   XDATA    BYTE      REG_DEBOUNCE_CTRL5
      02000606H   XDATA    BYTE      REG_DEBOUNCE_CTRL6
      02000608H   XDATA    BYTE      REG_DET_CTRL0
      02000609H   XDATA    BYTE      REG_DET_CTRL1
      0200060AH   XDATA    BYTE      REG_DET_CTRL2
      0200060BH   XDATA    BYTE      REG_DET_CTRL3
      0200060CH   XDATA    BYTE      REG_DET_CTRL4
      0200060DH   XDATA    BYTE      REG_DET_CTRL5
      0200060EH   XDATA    BYTE      REG_DET_CTRL6
      02000607H   XDATA    BYTE      REG_DLPF_CTRL0
      02000193H   XDATA    BYTE      REG_EQRX_23_16
      02000194H   XDATA    BYTE      REG_EQRX_31_24
      02000156H   XDATA    BYTE      REG_EQTX_31_24
      02000224H   XDATA    BYTE      REG_GPIO_IVEN
      02000223H   XDATA    BYTE      REG_GPIO_ODEN
      02000222H   XDATA    BYTE      REG_GPIO_OEB
      02000221H   XDATA    BYTE      REG_GPIO_OUT
      02000220H   XDATA    BYTE      REG_GPIO_SEL
      02000227H   XDATA    BYTE      REG_GPIOP_OEB
      02000226H   XDATA    BYTE      REG_GPIOP_OUT
      02000225H   XDATA    BYTE      REG_GPIOP_SEL
      02000245H   XDATA    BYTE      REG_HPD_TOG
      0200022AH   XDATA    BYTE      REG_IOMODE_CTL
      0200022EH   XDATA    BYTE      REG_IRQ_SRC_CTL
      0200021FH   XDATA    BYTE      REG_MI2C_MODE
      02000381H   XDATA    BYTE      REG_OPTION_CTR
      02000383H   XDATA    BYTE      REG_OPTION_CTR_1
      02000637H   XDATA    BYTE      REG_POWER_STATUS
      020001C5H   XDATA    BYTE      REG_RUSB_DRV_15_8
      020001C6H   XDATA    BYTE      REG_RUSB_DRV_23_16
LX51 LINKER/LOCATER V4.05                                                             04/27/2018  15:47:28  PAGE 13


      020001C4H   XDATA    BYTE      REG_RUSB_DRV_7_0
      0200063AH   XDATA    BYTE      REG_SET_CLR
      0200022FH   XDATA    BYTE      REG_STRETCH
      02000635H   XDATA    BYTE      REG_TMP_VBUS_VOL_15_8
      02000634H   XDATA    BYTE      REG_TMP_VBUS_VOL_7_0
      02000186H   XDATA    BYTE      REG_TUSB_DRV_15_8
      02000632H   XDATA    BYTE      REG_VBUS_DCC
      02000633H   XDATA    BYTE      REG_VCONN_DCC
      020003D5H   XDATA    BYTE      REG_VENDOR_CTRL0
      020003D6H   XDATA    BYTE      REG_VENDOR_CTRL1
      020003D7H   XDATA    BYTE      REG_VENDOR_CTRL2
      020003D8H   XDATA    BYTE      REG_VENDOR_CTRL3
      020003D9H   XDATA    BYTE      REG_VENDOR_CTRL4
      02000247H   XDATA    BYTE      REG_WID_SEL
      020003DDH   XDATA    BYTE      REGDD
      02000246H   XDATA    BYTE      REGHPD
*SFR* 00000098H.4 DATA     BIT       REN
*SFR* 00000098H.4 DATA     BIT       REN0
      020001F3H   XDATA    BYTE      REVISION_H
      020001F2H   XDATA    BYTE      REVISION_L
*SFR* 00000098H   DATA     BIT       RI
*SFR* 00000098H   DATA     BIT       RI0
      0200031AH   XDATA    BYTE      ROLE_CONTROL
*SFR* 000000D0H.3 DATA     BIT       RS0
*SFR* 000000D0H.4 DATA     BIT       RS1
*SFR* 000000D8H   DATA     BIT       RWT
      02000331H   XDATA    BYTE      RX_BUFF_FRAME_TYPE
      01001737H   CONST    ---       s_cIntMask0
      01001746H   CONST    ---       s_cIntMask1
*SFR* 00000096H   DATA     BYTE      SBANK
*SFR* 00000099H   DATA     BYTE      SBUF
*SFR* 00000099H   DATA     BYTE      SBUF0
*SFR* 00000098H   DATA     BYTE      SCON
*SFR* 00000098H   DATA     BYTE      SCON0
      02000380H   XDATA    BYTE      SFT_HD_RST_EN
*SFR* 00000098H.7 DATA     BIT       SM0
*SFR* 00000098H.7 DATA     BIT       SM00
*SFR* 00000098H.6 DATA     BIT       SM01
*SFR* 00000098H.5 DATA     BIT       SM02
*SFR* 00000098H.6 DATA     BIT       SM1
*SFR* 00000098H.5 DATA     BIT       SM2
*SFR* 00000081H   DATA     BYTE      SP
      02000275H   XDATA    BYTE      STA_P2_75
      02000650H   XDATA    BYTE      STANDARD_INPUT_CAPABILITIES
      02000651H   XDATA    BYTE      STANDARD_OUTPUT_CAPABILITIES
*SFR* 000000C8H.2 DATA     BIT       T2CM
*SFR* 000000C8H   DATA     BYTE      T2CON
*SFR* 000000C8H   DATA     BIT       T2I0
*SFR* 000000C8H.1 DATA     BIT       T2I1
*SFR* 000000C9H   DATA     BYTE      T2IF
*SFR* 000000C8H.7 DATA     BIT       T2PS
*SFR* 000000C8H.3 DATA     BIT       T2R0
*SFR* 000000C8H.4 DATA     BIT       T2R1
*SFR* 000000EBH   DATA     BYTE      TA
*SFR* 00000098H.3 DATA     BIT       TB08
*SFR* 00000098H.3 DATA     BIT       TB8
*SFR* 00000088H   DATA     BYTE      TCON
      02000319H   XDATA    BYTE      TCPC_CONTROL
      020002EAH   XDATA    BYTE      TESTI2CADDR
*SFR* 00000088H.5 DATA     BIT       TF0
*SFR* 00000088H.7 DATA     BIT       TF1
*SFR* 0000008CH   DATA     BYTE      TH0
*SFR* 0000008DH   DATA     BYTE      TH1
*SFR* 000000CDH   DATA     BYTE      TH2
*SFR* 00000098H.1 DATA     BIT       TI
LX51 LINKER/LOCATER V4.05                                                             04/27/2018  15:47:28  PAGE 14


*SFR* 00000098H.1 DATA     BIT       TI0
      01001649H   CODE     ---       timer0_IT
      01001471H   CODE     ---       timer1_INT
*SFR* 0000008AH   DATA     BYTE      TL0
*SFR* 0000008BH   DATA     BYTE      TL1
*SFR* 000000CCH   DATA     BYTE      TL2
*SFR* 00000089H   DATA     BYTE      TMOD
      020002D1H   XDATA    BYTE      TO_MPU_OFFSET
      020002D2H   XDATA    BYTE      TO_MPU_WRDATA
*SFR* 00000088H.4 DATA     BIT       TR0
*SFR* 00000088H.6 DATA     BIT       TR1
      02000350H   XDATA    BYTE      TRANSMIT
      02000351H   XDATA    BYTE      TRANSMIT_BYTE_COUNT
      02000354H   XDATA    BYTE      TRANSMIT_DATA_OBJECTS
      02000353H   XDATA    BYTE      TRANSMIT_HEADER_HIGH
      02000352H   XDATA    BYTE      TRANSMIT_HEADER_LOW
      0200038CH   XDATA    BYTE      TX_MSG_BUS_IDLE_TIMER_BYTE_0
      0200038DH   XDATA    BYTE      TX_MSG_BUS_IDLE_TIMER_BYTE_1
      0200038EH   XDATA    BYTE      TX_MSG_BUS_IDLE_TIMER_BYTE_2
      0200038FH   XDATA    BYTE      TX_RETRY_COUNTER
      020003C0H   XDATA    BYTE      TX_RX_Debug_Port_Index
      020003C1H   XDATA    BYTE      TX_RX_Debut_Port_Output
      0200040FH   XDATA    BYTE      ucxCCState
      02000649H   XDATA    BYTE      USBPD_REV_VER_H
      02000648H   XDATA    BYTE      USBPD_REV_VER_L
      02000647H   XDATA    BYTE      USBTYPEC_REV_H
      02000646H   XDATA    BYTE      USBTYPEC_REV_L
      0200040DH   XDATA    WORD      usxDelay
      010013F1H   CODE     ---       VBUS_Force_Discharge
      02000373H   XDATA    BYTE      VBUS_SINK_DISCONNECT_THRESHOLD_H
      02000372H   XDATA    BYTE      VBUS_SINK_DISCONNECT_THRESHOLD_L
      02000375H   XDATA    BYTE      VBUS_STOP_DISCHARGE_THRESHOLD_H
      02000374H   XDATA    BYTE      VBUS_STOP_DISCHARGE_THRESHOLD_L
      02000377H   XDATA    BYTE      VBUS_VOLTAGE_ALARM_HI_CFG_H
      02000376H   XDATA    BYTE      VBUS_VOLTAGE_ALARM_HI_CFG_L
      02000379H   XDATA    BYTE      VBUS_VOLTAGE_ALARM_LO_CFG_H
      02000378H   XDATA    BYTE      VBUS_VOLTAGE_ALARM_LO_CFG_L
      02000371H   XDATA    BYTE      VBUS_VOLTAGE_H
      02000370H   XDATA    BYTE      VBUS_VOLTAGE_L
      02000641H   XDATA    BYTE      VENDOR_ID_H
      02000640H   XDATA    BYTE      VENDOR_ID_L
*SFR* 000000D8H   DATA     BYTE      WDCON
*SFR* 000000D8H.3 DATA     BIT       WDIF
*SFR* 000000D8H.2 DATA     BIT       WTRF
*SFR* 00000092H   DATA     BYTE      WTST



SYMBOL TABLE OF MODULE:  .\OEM\Obj\..\..\PS8805_Generic (?C_STARTUP)

      VALUE       REP       CLASS    TYPE      SYMBOL NAME
      ====================================================
      ---         MODULE    ---      ---       ?C_STARTUP
      01000000H   PUBLIC    CODE     NEAR LAB  ?C_STARTUP
      000000E0H   SFRSYM    DATA     BYTE      ACC
      000000F0H   SFRSYM    DATA     BYTE      B
      00000083H   SFRSYM    DATA     BYTE      DPH
      00000082H   SFRSYM    DATA     BYTE      DPL
      000000A0H   SFRSYM    DATA     BYTE      PPAGE_SFR
      00000081H   SFRSYM    DATA     BYTE      SP
      00000000H   SYMBOL    NUMBER   ---       IBPSTACK
      00000100H   SYMBOL    NUMBER   ---       IBPSTACKTOP
      00000100H   SYMBOL    NUMBER   ---       IDATALEN
      0100135AH   SYMBOL    CODE     NEAR LAB  IDATALOOP
      00000000H   SYMBOL    NUMBER   ---       PBPSTACK
LX51 LINKER/LOCATER V4.05                                                             04/27/2018  15:47:28  PAGE 15


      00000100H   SYMBOL    NUMBER   ---       PBPSTACKTOP
      00000000H   SYMBOL    NUMBER   ---       PDATALEN
      00000000H   SYMBOL    NUMBER   ---       PDATASTART
      00000000H   SYMBOL    NUMBER   ---       PPAGE
      00000000H   SYMBOL    NUMBER   ---       PPAGEENABLE
      01001357H   SYMBOL    CODE     NEAR LAB  STARTUP1
      00000000H   SYMBOL    NUMBER   ---       XBPSTACK
      00010000H   SYMBOL    NUMBER   ---       XBPSTACKTOP
      00000200H   SYMBOL    NUMBER   ---       XDATALEN
      01001365H   SYMBOL    CODE     NEAR LAB  XDATALOOP
      00000400H   SYMBOL    NUMBER   ---       XDATASTART

      01000000H   BLOCK     CODE     NEAR LAB  LVL=0
      01000000H   LINE      CODE     ---       #143
      ---         BLOCKEND  ---      ---       LVL=0

      01001357H   BLOCK     CODE     NEAR LAB  LVL=0
      01001357H   LINE      CODE     ---       #151
      01001359H   LINE      CODE     ---       #152
      0100135AH   LINE      CODE     ---       #153
      0100135BH   LINE      CODE     ---       #154
      0100135DH   LINE      CODE     ---       #158
      01001360H   LINE      CODE     ---       #159
      01001362H   LINE      CODE     ---       #163
      01001364H   LINE      CODE     ---       #165
      01001365H   LINE      CODE     ---       #166
      01001366H   LINE      CODE     ---       #167
      01001367H   LINE      CODE     ---       #168
      01001369H   LINE      CODE     ---       #169
      0100136BH   LINE      CODE     ---       #203
      0100136EH   LINE      CODE     ---       #214
      ---         BLOCKEND  ---      ---       LVL=0

      ---         MODULE    ---      ---       MPU_INIT
      010016C5H   PUBLIC    CODE     ---       MPU_Init
      00000098H.3 SFRSYM    DATA     BIT       TB08
      000000C8H   SFRSYM    DATA     BIT       T2I0
      000000C3H   SFRSYM    DATA     BYTE      CCH1
      000000C8H.1 SFRSYM    DATA     BIT       T2I1
      00000098H.7 SFRSYM    DATA     BIT       SM00
      000000C5H   SFRSYM    DATA     BYTE      CCH2
      00000098H.6 SFRSYM    DATA     BIT       SM01
      000000C7H   SFRSYM    DATA     BYTE      CCH3
      00000098H.5 SFRSYM    DATA     BIT       SM02
      000000D0H.6 SFRSYM    DATA     BIT       AC
      000000C2H   SFRSYM    DATA     BYTE      CCL1
      000000C4H   SFRSYM    DATA     BYTE      CCL2
      000000A8H.7 SFRSYM    DATA     BIT       EA
      000000C6H   SFRSYM    DATA     BYTE      CCL3
      000000C8H.3 SFRSYM    DATA     BIT       T2R0
      000000C8H.4 SFRSYM    DATA     BIT       T2R1
      000000D9H   SFRSYM    DATA     BYTE      ECNTCON
      00000083H   SFRSYM    DATA     BYTE      DPH0
      000000F3H   SFRSYM    DATA     BYTE      ECNT20
      000000A8H   SFRSYM    DATA     BYTE      IE
      000000F4H   SFRSYM    DATA     BYTE      ECNT21
      000000F5H   SFRSYM    DATA     BYTE      ECNT22
      000000F6H   SFRSYM    DATA     BYTE      ECNT23
      00000082H   SFRSYM    DATA     BYTE      DPL0
      000000F7H   SFRSYM    DATA     BYTE      ECNT24
      000000C8H.6 SFRSYM    DATA     BIT       I3FR
      000000EBH   SFRSYM    DATA     BYTE      TA
      00000098H.4 SFRSYM    DATA     BIT       REN0
      000000C9H   SFRSYM    DATA     BYTE      T2IF
      000000C8H.2 SFRSYM    DATA     BIT       T2CM
LX51 LINKER/LOCATER V4.05                                                             04/27/2018  15:47:28  PAGE 16


      000000A8H.4 SFRSYM    DATA     BIT       ES
      000000B8H   SFRSYM    DATA     BYTE      IP
      000000CEH   SFRSYM    DATA     BYTE      CCEN
      00000098H   SFRSYM    DATA     BIT       RI
      000000D0H.7 SFRSYM    DATA     BIT       CY
      00000098H.1 SFRSYM    DATA     BIT       TI
      00000093H   SFRSYM    DATA     BYTE      DPX0
      000000B8H.4 SFRSYM    DATA     BIT       PS
      00000081H   SFRSYM    DATA     BYTE      SP
      000000D0H.2 SFRSYM    DATA     BIT       OV
      000000E8H.4 SFRSYM    DATA     BIT       EWDI
      000000C8H.7 SFRSYM    DATA     BIT       T2PS
      000000D8H.3 SFRSYM    DATA     BIT       WDIF
      000000CBH   SFRSYM    DATA     BYTE      RCRH
      00000099H   SFRSYM    DATA     BYTE      SBUF
      00000087H   SFRSYM    DATA     BYTE      PCON
      0000009EH   SFRSYM    DATA     BYTE      IDXL
      000000CAH   SFRSYM    DATA     BYTE      RCRL
      00000098H   SFRSYM    DATA     BYTE      SCON
      000000F8H.5 SFRSYM    DATA     BIT       PWDI
      00000089H   SFRSYM    DATA     BYTE      TMOD
      00000088H   SFRSYM    DATA     BYTE      TCON
      00000088H.1 SFRSYM    DATA     BIT       IE0
      00000088H.3 SFRSYM    DATA     BIT       IE1
      000000DAH   SFRSYM    DATA     BYTE      ECNTCON2
      000000EAH   SFRSYM    DATA     BYTE      MXAX
      000000F0H   SFRSYM    DATA     BYTE      B
      000000D8H.2 SFRSYM    DATA     BIT       WTRF
      000000E0H   SFRSYM    DATA     BYTE      ACC
      000000A8H.4 SFRSYM    DATA     BIT       ES0
      000000A8H.1 SFRSYM    DATA     BIT       ET0
      000000A8H.3 SFRSYM    DATA     BIT       ET1
      00000088H.5 SFRSYM    DATA     BIT       TF0
      00000098H   SFRSYM    DATA     BIT       RI0
      00000088H.7 SFRSYM    DATA     BIT       TF1
      00000098H.2 SFRSYM    DATA     BIT       RB8
      0000008CH   SFRSYM    DATA     BYTE      TH0
      000000A8H   SFRSYM    DATA     BIT       EX0
      00000098H.1 SFRSYM    DATA     BIT       TI0
      00000088H   SFRSYM    DATA     BIT       IT0
      0000008DH   SFRSYM    DATA     BYTE      TH1
      000000A8H.2 SFRSYM    DATA     BIT       EX1
      00000098H.3 SFRSYM    DATA     BIT       TB8
      00000088H.2 SFRSYM    DATA     BIT       IT1
      000000CDH   SFRSYM    DATA     BYTE      TH2
      000000E8H   SFRSYM    DATA     BIT       EX2
      000000D0H   SFRSYM    DATA     BIT       P
      000000E8H.1 SFRSYM    DATA     BIT       EX3
      00000098H.7 SFRSYM    DATA     BIT       SM0
      0000008AH   SFRSYM    DATA     BYTE      TL0
      000000E8H.2 SFRSYM    DATA     BIT       EX4
      00000098H.6 SFRSYM    DATA     BIT       SM1
      0000008BH   SFRSYM    DATA     BYTE      TL1
      000000E8H.3 SFRSYM    DATA     BIT       EX5
      00000098H.5 SFRSYM    DATA     BIT       SM2
      000000CCH   SFRSYM    DATA     BYTE      TL2
      000000B8H.4 SFRSYM    DATA     BIT       PS0
      000000E8H   SFRSYM    DATA     BYTE      EIE
      00000092H   SFRSYM    DATA     BYTE      WTST
      000000B8H.1 SFRSYM    DATA     BIT       PT0
      00000091H   SFRSYM    DATA     BYTE      EIF
      000000D0H.3 SFRSYM    DATA     BIT       RS0
      000000B8H.3 SFRSYM    DATA     BIT       PT1
      000000D0H.4 SFRSYM    DATA     BIT       RS1
      00000088H.4 SFRSYM    DATA     BIT       TR0
LX51 LINKER/LOCATER V4.05                                                             04/27/2018  15:47:28  PAGE 17


      00000088H.6 SFRSYM    DATA     BIT       TR1
      000000B8H   SFRSYM    DATA     BIT       PX0
      000000B8H.2 SFRSYM    DATA     BIT       PX1
      0000008FH   SFRSYM    DATA     BYTE      MDH
      000000F8H   SFRSYM    DATA     BIT       PX2
      000000F8H.1 SFRSYM    DATA     BIT       PX3
      000000E3H   SFRSYM    DATA     BYTE      ECNT0
      000000F8H.2 SFRSYM    DATA     BIT       PX4
      000000E4H   SFRSYM    DATA     BYTE      ECNT1
      00000083H   SFRSYM    DATA     BYTE      DPH
      000000F8H.3 SFRSYM    DATA     BIT       PX5
      000000E5H   SFRSYM    DATA     BYTE      ECNT2
      000000F8H.4 SFRSYM    DATA     BIT       PX6
      000000E6H   SFRSYM    DATA     BYTE      ECNT3
      000000F8H   SFRSYM    DATA     BYTE      EIP
      000000E7H   SFRSYM    DATA     BYTE      ECNT4
      00000082H   SFRSYM    DATA     BYTE      DPL
      00000099H   SFRSYM    DATA     BYTE      SBUF0
      00000098H   SFRSYM    DATA     BYTE      SCON0
      00000093H   SFRSYM    DATA     BYTE      DPP
      00000098H.4 SFRSYM    DATA     BIT       REN
      000000D8H.4 SFRSYM    DATA     BIT       INT5F
      000000C8H   SFRSYM    DATA     BYTE      T2CON
      000000D8H.5 SFRSYM    DATA     BIT       INT6F
      000000D8H.6 SFRSYM    DATA     BIT       INT7F
      000000D8H.7 SFRSYM    DATA     BIT       INT8F
      0000008EH   SFRSYM    DATA     BYTE      CKCON
      000000D8H.1 SFRSYM    DATA     BIT       EWT
      00000096H   SFRSYM    DATA     BYTE      SBANK
      000000D0H.5 SFRSYM    DATA     BIT       F0
      000000D0H.1 SFRSYM    DATA     BIT       F1
      000000D0H   SFRSYM    DATA     BYTE      PSW
      00000098H.2 SFRSYM    DATA     BIT       RB08
      000000D8H   SFRSYM    DATA     BYTE      WDCON
      000000D8H   SFRSYM    DATA     BIT       RWT

      010016C5H   BLOCK     CODE     ---       LVL=0
      010016C5H   LINE      CODE     ---       #14
      010016C5H   LINE      CODE     ---       #15
      010016C5H   LINE      CODE     ---       #16
      010016C8H   LINE      CODE     ---       #24
      010016CBH   LINE      CODE     ---       #25
      010016CEH   LINE      CODE     ---       #27
      010016D1H   LINE      CODE     ---       #28
      010016D4H   LINE      CODE     ---       #30
      010016D7H   LINE      CODE     ---       #38
      010016D9H   LINE      CODE     ---       #39
      010016DBH   LINE      CODE     ---       #46
      010016E1H   LINE      CODE     ---       #58
      ---         BLOCKEND  ---      ---       LVL=0

      ---         MODULE    ---      ---       MPU_UTIL
      01001746H   PUBLIC    CONST    ---       s_cIntMask1
      01001737H   PUBLIC    CONST    ---       s_cIntMask0
      00000008H   PUBLIC    DATA     BYTE      ?_MPU_SetVerNum?BYTE
      010016F8H   PUBLIC    CODE     ---       _MPU_SetVerNum
      01001722H   PUBLIC    CODE     ---       MPU_EnableINT
      01001709H   PUBLIC    CODE     ---       MPU_DisableINT
      0100000AH   PUBLIC    CODE     ---       MPU_EnableINT1
      01000009H   PUBLIC    CODE     ---       MPU_EnableINT0
      010015B0H   PUBLIC    CODE     ---       MPU_SetINTMask1
      01001556H   PUBLIC    CODE     ---       MPU_SetINTMask0
      00000098H.3 SFRSYM    DATA     BIT       TB08
      000000C8H   SFRSYM    DATA     BIT       T2I0
      000000C3H   SFRSYM    DATA     BYTE      CCH1
LX51 LINKER/LOCATER V4.05                                                             04/27/2018  15:47:28  PAGE 18


      000000C8H.1 SFRSYM    DATA     BIT       T2I1
      00000098H.7 SFRSYM    DATA     BIT       SM00
      000000C5H   SFRSYM    DATA     BYTE      CCH2
      00000098H.6 SFRSYM    DATA     BIT       SM01
      000000C7H   SFRSYM    DATA     BYTE      CCH3
      00000098H.5 SFRSYM    DATA     BIT       SM02
      000000D0H.6 SFRSYM    DATA     BIT       AC
      000000C2H   SFRSYM    DATA     BYTE      CCL1
      000000C4H   SFRSYM    DATA     BYTE      CCL2
      000000A8H.7 SFRSYM    DATA     BIT       EA
      000000C6H   SFRSYM    DATA     BYTE      CCL3
      000000C8H.3 SFRSYM    DATA     BIT       T2R0
      000000C8H.4 SFRSYM    DATA     BIT       T2R1
      000000D9H   SFRSYM    DATA     BYTE      ECNTCON
      00000083H   SFRSYM    DATA     BYTE      DPH0
      000000F3H   SFRSYM    DATA     BYTE      ECNT20
      000000A8H   SFRSYM    DATA     BYTE      IE
      000000F4H   SFRSYM    DATA     BYTE      ECNT21
      000000F5H   SFRSYM    DATA     BYTE      ECNT22
      000000F6H   SFRSYM    DATA     BYTE      ECNT23
      00000082H   SFRSYM    DATA     BYTE      DPL0
      000000F7H   SFRSYM    DATA     BYTE      ECNT24
      000000C8H.6 SFRSYM    DATA     BIT       I3FR
      000000EBH   SFRSYM    DATA     BYTE      TA
      00000098H.4 SFRSYM    DATA     BIT       REN0
      000000C9H   SFRSYM    DATA     BYTE      T2IF
      000000C8H.2 SFRSYM    DATA     BIT       T2CM
      000000A8H.4 SFRSYM    DATA     BIT       ES
      000000B8H   SFRSYM    DATA     BYTE      IP
      000000CEH   SFRSYM    DATA     BYTE      CCEN
      00000098H   SFRSYM    DATA     BIT       RI
      000000D0H.7 SFRSYM    DATA     BIT       CY
      00000098H.1 SFRSYM    DATA     BIT       TI
      00000093H   SFRSYM    DATA     BYTE      DPX0
      000000B8H.4 SFRSYM    DATA     BIT       PS
      00000081H   SFRSYM    DATA     BYTE      SP
      000000D0H.2 SFRSYM    DATA     BIT       OV
      000000E8H.4 SFRSYM    DATA     BIT       EWDI
      000000C8H.7 SFRSYM    DATA     BIT       T2PS
      000000D8H.3 SFRSYM    DATA     BIT       WDIF
      000000CBH   SFRSYM    DATA     BYTE      RCRH
      00000099H   SFRSYM    DATA     BYTE      SBUF
      00000087H   SFRSYM    DATA     BYTE      PCON
      0000009EH   SFRSYM    DATA     BYTE      IDXL
      000000CAH   SFRSYM    DATA     BYTE      RCRL
      00000098H   SFRSYM    DATA     BYTE      SCON
      000000F8H.5 SFRSYM    DATA     BIT       PWDI
      00000089H   SFRSYM    DATA     BYTE      TMOD
      00000088H   SFRSYM    DATA     BYTE      TCON
      00000088H.1 SFRSYM    DATA     BIT       IE0
      00000088H.3 SFRSYM    DATA     BIT       IE1
      000000DAH   SFRSYM    DATA     BYTE      ECNTCON2
      000000EAH   SFRSYM    DATA     BYTE      MXAX
      000000F0H   SFRSYM    DATA     BYTE      B
      000000D8H.2 SFRSYM    DATA     BIT       WTRF
      000000E0H   SFRSYM    DATA     BYTE      ACC
      000000A8H.4 SFRSYM    DATA     BIT       ES0
      000000A8H.1 SFRSYM    DATA     BIT       ET0
      000000A8H.3 SFRSYM    DATA     BIT       ET1
      00000088H.5 SFRSYM    DATA     BIT       TF0
      00000098H   SFRSYM    DATA     BIT       RI0
      00000088H.7 SFRSYM    DATA     BIT       TF1
      00000098H.2 SFRSYM    DATA     BIT       RB8
      0000008CH   SFRSYM    DATA     BYTE      TH0
      000000A8H   SFRSYM    DATA     BIT       EX0
LX51 LINKER/LOCATER V4.05                                                             04/27/2018  15:47:28  PAGE 19


      00000098H.1 SFRSYM    DATA     BIT       TI0
      00000088H   SFRSYM    DATA     BIT       IT0
      0000008DH   SFRSYM    DATA     BYTE      TH1
      000000A8H.2 SFRSYM    DATA     BIT       EX1
      00000098H.3 SFRSYM    DATA     BIT       TB8
      00000088H.2 SFRSYM    DATA     BIT       IT1
      000000CDH   SFRSYM    DATA     BYTE      TH2
      000000E8H   SFRSYM    DATA     BIT       EX2
      000000D0H   SFRSYM    DATA     BIT       P
      000000E8H.1 SFRSYM    DATA     BIT       EX3
      00000098H.7 SFRSYM    DATA     BIT       SM0
      0000008AH   SFRSYM    DATA     BYTE      TL0
      000000E8H.2 SFRSYM    DATA     BIT       EX4
      00000098H.6 SFRSYM    DATA     BIT       SM1
      0000008BH   SFRSYM    DATA     BYTE      TL1
      000000E8H.3 SFRSYM    DATA     BIT       EX5
      00000098H.5 SFRSYM    DATA     BIT       SM2
      000000CCH   SFRSYM    DATA     BYTE      TL2
      000000B8H.4 SFRSYM    DATA     BIT       PS0
      000000E8H   SFRSYM    DATA     BYTE      EIE
      00000092H   SFRSYM    DATA     BYTE      WTST
      000000B8H.1 SFRSYM    DATA     BIT       PT0
      00000091H   SFRSYM    DATA     BYTE      EIF
      000000D0H.3 SFRSYM    DATA     BIT       RS0
      000000B8H.3 SFRSYM    DATA     BIT       PT1
      000000D0H.4 SFRSYM    DATA     BIT       RS1
      00000088H.4 SFRSYM    DATA     BIT       TR0
      00000088H.6 SFRSYM    DATA     BIT       TR1
      000000B8H   SFRSYM    DATA     BIT       PX0
      000000B8H.2 SFRSYM    DATA     BIT       PX1
      0000008FH   SFRSYM    DATA     BYTE      MDH
      000000F8H   SFRSYM    DATA     BIT       PX2
      000000F8H.1 SFRSYM    DATA     BIT       PX3
      000000E3H   SFRSYM    DATA     BYTE      ECNT0
      000000F8H.2 SFRSYM    DATA     BIT       PX4
      000000E4H   SFRSYM    DATA     BYTE      ECNT1
      00000083H   SFRSYM    DATA     BYTE      DPH
      000000F8H.3 SFRSYM    DATA     BIT       PX5
      000000E5H   SFRSYM    DATA     BYTE      ECNT2
      000000F8H.4 SFRSYM    DATA     BIT       PX6
      000000E6H   SFRSYM    DATA     BYTE      ECNT3
      000000F8H   SFRSYM    DATA     BYTE      EIP
      000000E7H   SFRSYM    DATA     BYTE      ECNT4
      00000082H   SFRSYM    DATA     BYTE      DPL
      00000099H   SFRSYM    DATA     BYTE      SBUF0
      00000098H   SFRSYM    DATA     BYTE      SCON0
      00000093H   SFRSYM    DATA     BYTE      DPP
      00000098H.4 SFRSYM    DATA     BIT       REN
      000000D8H.4 SFRSYM    DATA     BIT       INT5F
      000000C8H   SFRSYM    DATA     BYTE      T2CON
      000000D8H.5 SFRSYM    DATA     BIT       INT6F
      000000D8H.6 SFRSYM    DATA     BIT       INT7F
      000000D8H.7 SFRSYM    DATA     BIT       INT8F
      0000008EH   SFRSYM    DATA     BYTE      CKCON
      000000D8H.1 SFRSYM    DATA     BIT       EWT
      00000096H   SFRSYM    DATA     BYTE      SBANK
      000000D0H.5 SFRSYM    DATA     BIT       F0
      000000D0H.1 SFRSYM    DATA     BIT       F1
      000000D0H   SFRSYM    DATA     BYTE      PSW
      00000098H.2 SFRSYM    DATA     BIT       RB08
      000000D8H   SFRSYM    DATA     BYTE      WDCON
      000000D8H   SFRSYM    DATA     BIT       RWT

      01001556H   BLOCK     CODE     ---       LVL=0
      01001556H   BLOCK     CODE     NEAR LAB  LVL=1
LX51 LINKER/LOCATER V4.05                                                             04/27/2018  15:47:28  PAGE 20


      0000000DH   SYMBOL    IDATA    BYTE      uciIndex
      ---         BLOCKEND  ---      ---       LVL=1
      01001556H   LINE      CODE     ---       #31
      01001556H   LINE      CODE     ---       #32
      01001556H   LINE      CODE     ---       #33
      0100155AH   LINE      CODE     ---       #35
      01001571H   LINE      CODE     ---       #36
      01001571H   LINE      CODE     ---       #37
      010015ACH   LINE      CODE     ---       #40
      010015ADH   LINE      CODE     ---       #41
      010015AFH   LINE      CODE     ---       #42
      ---         BLOCKEND  ---      ---       LVL=0

      010015B0H   BLOCK     CODE     ---       LVL=0
      010015B0H   BLOCK     CODE     NEAR LAB  LVL=1
      0000000DH   SYMBOL    IDATA    BYTE      uciIndex
      ---         BLOCKEND  ---      ---       LVL=1
      010015B0H   LINE      CODE     ---       #57
      010015B0H   LINE      CODE     ---       #58
      010015B0H   LINE      CODE     ---       #59
      010015B4H   LINE      CODE     ---       #61
      010015CBH   LINE      CODE     ---       #62
      010015CBH   LINE      CODE     ---       #63
      01001606H   LINE      CODE     ---       #66
      01001607H   LINE      CODE     ---       #67
      01001609H   LINE      CODE     ---       #68
      ---         BLOCKEND  ---      ---       LVL=0

      01000009H   BLOCK     CODE     ---       LVL=0
      01000009H   LINE      CODE     ---       #83
      01000009H   LINE      CODE     ---       #84
      01000009H   LINE      CODE     ---       #86
      ---         BLOCKEND  ---      ---       LVL=0

      0100000AH   BLOCK     CODE     ---       LVL=0
      0100000AH   LINE      CODE     ---       #88
      0100000AH   LINE      CODE     ---       #89
      0100000AH   LINE      CODE     ---       #93
      ---         BLOCKEND  ---      ---       LVL=0

      01001709H   BLOCK     CODE     ---       LVL=0
      01001709H   LINE      CODE     ---       #105
      01001709H   LINE      CODE     ---       #106
      01001709H   LINE      CODE     ---       #107
      0100170BH   LINE      CODE     ---       #108
      0100170DH   LINE      CODE     ---       #109
      0100170FH   LINE      CODE     ---       #110
      01001711H   LINE      CODE     ---       #111
      01001713H   LINE      CODE     ---       #112
      01001715H   LINE      CODE     ---       #113
      ---         BLOCKEND  ---      ---       LVL=0

      01001722H   BLOCK     CODE     ---       LVL=0
      01001722H   LINE      CODE     ---       #135
      01001722H   LINE      CODE     ---       #136
      01001722H   LINE      CODE     ---       #137
      01001724H   LINE      CODE     ---       #138
      01001726H   LINE      CODE     ---       #140
      01001728H   LINE      CODE     ---       #141
      0100172AH   LINE      CODE     ---       #142
      0100172CH   LINE      CODE     ---       #143
      ---         BLOCKEND  ---      ---       LVL=0

      010016F8H   BLOCK     CODE     ---       LVL=0
      00000007H   SYMBOL    DATA     BYTE      ucOEM
LX51 LINKER/LOCATER V4.05                                                             04/27/2018  15:47:28  PAGE 21


      00000009H   SYMBOL    DATA     BYTE      ucMajor
      0000000AH   SYMBOL    DATA     BYTE      ucMiddle
      0000000BH   SYMBOL    DATA     BYTE      ucMinor
      010016F8H   LINE      CODE     ---       #154
      010016FCH   LINE      CODE     ---       #155
      010016FCH   LINE      CODE     ---       #156
      010016FCH   LINE      CODE     ---       #160
      01001702H   LINE      CODE     ---       #161
      01001708H   LINE      CODE     ---       #162
      ---         BLOCKEND  ---      ---       LVL=0

      ---         MODULE    ---      ---       PD
      0100167BH   PUBLIC    CODE     ---       _Delay
      010013F1H   PUBLIC    CODE     ---       VBUS_Force_Discharge
      010011AAH   PUBLIC    CODE     ---       Physical_Layer_Init
      00000098H.3 SFRSYM    DATA     BIT       TB08
      000000C8H   SFRSYM    DATA     BIT       T2I0
      000000C3H   SFRSYM    DATA     BYTE      CCH1
      000000C8H.1 SFRSYM    DATA     BIT       T2I1
      00000098H.7 SFRSYM    DATA     BIT       SM00
      000000C5H   SFRSYM    DATA     BYTE      CCH2
      00000098H.6 SFRSYM    DATA     BIT       SM01
      000000C7H   SFRSYM    DATA     BYTE      CCH3
      00000098H.5 SFRSYM    DATA     BIT       SM02
      000000D0H.6 SFRSYM    DATA     BIT       AC
      000000C2H   SFRSYM    DATA     BYTE      CCL1
      000000C4H   SFRSYM    DATA     BYTE      CCL2
      000000A8H.7 SFRSYM    DATA     BIT       EA
      000000C6H   SFRSYM    DATA     BYTE      CCL3
      000000C8H.3 SFRSYM    DATA     BIT       T2R0
      000000C8H.4 SFRSYM    DATA     BIT       T2R1
      000000D9H   SFRSYM    DATA     BYTE      ECNTCON
      00000083H   SFRSYM    DATA     BYTE      DPH0
      000000F3H   SFRSYM    DATA     BYTE      ECNT20
      000000A8H   SFRSYM    DATA     BYTE      IE
      000000F4H   SFRSYM    DATA     BYTE      ECNT21
      000000F5H   SFRSYM    DATA     BYTE      ECNT22
      000000F6H   SFRSYM    DATA     BYTE      ECNT23
      00000082H   SFRSYM    DATA     BYTE      DPL0
      000000F7H   SFRSYM    DATA     BYTE      ECNT24
      000000C8H.6 SFRSYM    DATA     BIT       I3FR
      000000EBH   SFRSYM    DATA     BYTE      TA
      00000098H.4 SFRSYM    DATA     BIT       REN0
      000000C9H   SFRSYM    DATA     BYTE      T2IF
      000000C8H.2 SFRSYM    DATA     BIT       T2CM
      000000A8H.4 SFRSYM    DATA     BIT       ES
      000000B8H   SFRSYM    DATA     BYTE      IP
      000000CEH   SFRSYM    DATA     BYTE      CCEN
      00000098H   SFRSYM    DATA     BIT       RI
      000000D0H.7 SFRSYM    DATA     BIT       CY
      00000098H.1 SFRSYM    DATA     BIT       TI
      00000093H   SFRSYM    DATA     BYTE      DPX0
      000000B8H.4 SFRSYM    DATA     BIT       PS
      00000081H   SFRSYM    DATA     BYTE      SP
      000000D0H.2 SFRSYM    DATA     BIT       OV
      000000E8H.4 SFRSYM    DATA     BIT       EWDI
      000000C8H.7 SFRSYM    DATA     BIT       T2PS
      000000D8H.3 SFRSYM    DATA     BIT       WDIF
      000000CBH   SFRSYM    DATA     BYTE      RCRH
      00000099H   SFRSYM    DATA     BYTE      SBUF
      00000087H   SFRSYM    DATA     BYTE      PCON
      0000009EH   SFRSYM    DATA     BYTE      IDXL
      000000CAH   SFRSYM    DATA     BYTE      RCRL
      00000098H   SFRSYM    DATA     BYTE      SCON
      000000F8H.5 SFRSYM    DATA     BIT       PWDI
LX51 LINKER/LOCATER V4.05                                                             04/27/2018  15:47:28  PAGE 22


      00000089H   SFRSYM    DATA     BYTE      TMOD
      00000088H   SFRSYM    DATA     BYTE      TCON
      00000088H.1 SFRSYM    DATA     BIT       IE0
      00000088H.3 SFRSYM    DATA     BIT       IE1
      000000DAH   SFRSYM    DATA     BYTE      ECNTCON2
      000000EAH   SFRSYM    DATA     BYTE      MXAX
      000000F0H   SFRSYM    DATA     BYTE      B
      000000D8H.2 SFRSYM    DATA     BIT       WTRF
      000000E0H   SFRSYM    DATA     BYTE      ACC
      000000A8H.4 SFRSYM    DATA     BIT       ES0
      000000A8H.1 SFRSYM    DATA     BIT       ET0
      000000A8H.3 SFRSYM    DATA     BIT       ET1
      00000088H.5 SFRSYM    DATA     BIT       TF0
      00000098H   SFRSYM    DATA     BIT       RI0
      00000088H.7 SFRSYM    DATA     BIT       TF1
      00000098H.2 SFRSYM    DATA     BIT       RB8
      0000008CH   SFRSYM    DATA     BYTE      TH0
      000000A8H   SFRSYM    DATA     BIT       EX0
      00000098H.1 SFRSYM    DATA     BIT       TI0
      00000088H   SFRSYM    DATA     BIT       IT0
      0000008DH   SFRSYM    DATA     BYTE      TH1
      000000A8H.2 SFRSYM    DATA     BIT       EX1
      00000098H.3 SFRSYM    DATA     BIT       TB8
      00000088H.2 SFRSYM    DATA     BIT       IT1
      000000CDH   SFRSYM    DATA     BYTE      TH2
      000000E8H   SFRSYM    DATA     BIT       EX2
      000000D0H   SFRSYM    DATA     BIT       P
      000000E8H.1 SFRSYM    DATA     BIT       EX3
      00000098H.7 SFRSYM    DATA     BIT       SM0
      0000008AH   SFRSYM    DATA     BYTE      TL0
      000000E8H.2 SFRSYM    DATA     BIT       EX4
      00000098H.6 SFRSYM    DATA     BIT       SM1
      0000008BH   SFRSYM    DATA     BYTE      TL1
      000000E8H.3 SFRSYM    DATA     BIT       EX5
      00000098H.5 SFRSYM    DATA     BIT       SM2
      000000CCH   SFRSYM    DATA     BYTE      TL2
      000000B8H.4 SFRSYM    DATA     BIT       PS0
      000000E8H   SFRSYM    DATA     BYTE      EIE
      00000092H   SFRSYM    DATA     BYTE      WTST
      000000B8H.1 SFRSYM    DATA     BIT       PT0
      00000091H   SFRSYM    DATA     BYTE      EIF
      000000D0H.3 SFRSYM    DATA     BIT       RS0
      000000B8H.3 SFRSYM    DATA     BIT       PT1
      000000D0H.4 SFRSYM    DATA     BIT       RS1
      00000088H.4 SFRSYM    DATA     BIT       TR0
      00000088H.6 SFRSYM    DATA     BIT       TR1
      000000B8H   SFRSYM    DATA     BIT       PX0
      000000B8H.2 SFRSYM    DATA     BIT       PX1
      0000008FH   SFRSYM    DATA     BYTE      MDH
      000000F8H   SFRSYM    DATA     BIT       PX2
      000000F8H.1 SFRSYM    DATA     BIT       PX3
      000000E3H   SFRSYM    DATA     BYTE      ECNT0
      000000F8H.2 SFRSYM    DATA     BIT       PX4
      000000E4H   SFRSYM    DATA     BYTE      ECNT1
      00000083H   SFRSYM    DATA     BYTE      DPH
      000000F8H.3 SFRSYM    DATA     BIT       PX5
      000000E5H   SFRSYM    DATA     BYTE      ECNT2
      000000F8H.4 SFRSYM    DATA     BIT       PX6
      000000E6H   SFRSYM    DATA     BYTE      ECNT3
      000000F8H   SFRSYM    DATA     BYTE      EIP
      000000E7H   SFRSYM    DATA     BYTE      ECNT4
      00000082H   SFRSYM    DATA     BYTE      DPL
      00000099H   SFRSYM    DATA     BYTE      SBUF0
      00000098H   SFRSYM    DATA     BYTE      SCON0
      00000093H   SFRSYM    DATA     BYTE      DPP
LX51 LINKER/LOCATER V4.05                                                             04/27/2018  15:47:28  PAGE 23


      00000098H.4 SFRSYM    DATA     BIT       REN
      000000D8H.4 SFRSYM    DATA     BIT       INT5F
      000000C8H   SFRSYM    DATA     BYTE      T2CON
      000000D8H.5 SFRSYM    DATA     BIT       INT6F
      000000D8H.6 SFRSYM    DATA     BIT       INT7F
      000000D8H.7 SFRSYM    DATA     BIT       INT8F
      0000008EH   SFRSYM    DATA     BYTE      CKCON
      000000D8H.1 SFRSYM    DATA     BIT       EWT
      00000096H   SFRSYM    DATA     BYTE      SBANK
      000000D0H.5 SFRSYM    DATA     BIT       F0
      000000D0H.1 SFRSYM    DATA     BIT       F1
      000000D0H   SFRSYM    DATA     BYTE      PSW
      00000098H.2 SFRSYM    DATA     BIT       RB08
      000000D8H   SFRSYM    DATA     BYTE      WDCON
      000000D8H   SFRSYM    DATA     BIT       RWT

      010011AAH   BLOCK     CODE     ---       LVL=0
      010011AAH   LINE      CODE     ---       #16
      010011AAH   LINE      CODE     ---       #17
      010011AAH   LINE      CODE     ---       #21
      010011B1H   LINE      CODE     ---       #29
      010011B7H   LINE      CODE     ---       #31
      010011BDH   LINE      CODE     ---       #32
      010011C2H   LINE      CODE     ---       #37
      010011C9H   LINE      CODE     ---       #38
      010011D0H   LINE      CODE     ---       #39
      010011D6H   LINE      CODE     ---       #40
      010011DCH   LINE      CODE     ---       #41
      010011E2H   LINE      CODE     ---       #54
      010011E7H   LINE      CODE     ---       #55
      010011EDH   LINE      CODE     ---       #56
      010011F2H   LINE      CODE     ---       #57
      010011F8H   LINE      CODE     ---       #61
      010011FEH   LINE      CODE     ---       #62
      01001204H   LINE      CODE     ---       #63
      0100120BH   LINE      CODE     ---       #64
      01001212H   LINE      CODE     ---       #65
      01001218H   LINE      CODE     ---       #67
      0100121DH   LINE      CODE     ---       #68
      01001221H   LINE      CODE     ---       #70
      01001228H   LINE      CODE     ---       #71
      0100122FH   LINE      CODE     ---       #79
      01001235H   LINE      CODE     ---       #82
      0100123BH   LINE      CODE     ---       #83
      01001241H   LINE      CODE     ---       #84
      01001247H   LINE      CODE     ---       #121
      0100124DH   LINE      CODE     ---       #122
      01001253H   LINE      CODE     ---       #123
      01001259H   LINE      CODE     ---       #125
      0100125FH   LINE      CODE     ---       #126
      01001265H   LINE      CODE     ---       #127
      0100126BH   LINE      CODE     ---       #134
      01001271H   LINE      CODE     ---       #135
      01001276H   LINE      CODE     ---       #136
      0100127AH   LINE      CODE     ---       #137
      01001280H   LINE      CODE     ---       #139
      01001286H   LINE      CODE     ---       #140
      0100128BH   LINE      CODE     ---       #141
      01001291H   LINE      CODE     ---       #142
      01001296H   LINE      CODE     ---       #143
      0100129CH   LINE      CODE     ---       #144
      010012A1H   LINE      CODE     ---       #145
      010012A5H   LINE      CODE     ---       #146
      010012A9H   LINE      CODE     ---       #148
      010012AEH   LINE      CODE     ---       #149
LX51 LINKER/LOCATER V4.05                                                             04/27/2018  15:47:28  PAGE 24


      010012B4H   LINE      CODE     ---       #150
      010012BAH   LINE      CODE     ---       #152
      010012C1H   LINE      CODE     ---       #158
      010012C8H   LINE      CODE     ---       #159
      010012CCH   LINE      CODE     ---       #165
      010012D3H   LINE      CODE     ---       #168
      010012DAH   LINE      CODE     ---       #169
      010012E1H   LINE      CODE     ---       #173
      010012E7H   LINE      CODE     ---       #187
      010012EEH   LINE      CODE     ---       #188
      010012EEH   LINE      CODE     ---       #195
      010012F2H   LINE      CODE     ---       #196
      010012F8H   LINE      CODE     ---       #197
      010012FEH   LINE      CODE     ---       #198
      01001304H   LINE      CODE     ---       #199
      0100130AH   LINE      CODE     ---       #206
      01001311H   LINE      CODE     ---       #212
      01001317H   LINE      CODE     ---       #214
      0100131CH   LINE      CODE     ---       #215
      0100131EH   LINE      CODE     ---       #217
      0100131EH   LINE      CODE     ---       #218
      01001325H   LINE      CODE     ---       #219
      0100132DH   LINE      CODE     ---       #220
      0100132DH   LINE      CODE     ---       #222
      01001334H   LINE      CODE     ---       #223
      01001338H   LINE      CODE     ---       #224
      01001338H   LINE      CODE     ---       #225
      01001338H   LINE      CODE     ---       #227
      01001340H   LINE      CODE     ---       #229
      01001346H   LINE      CODE     ---       #230
      0100134AH   LINE      CODE     ---       #233
      01001350H   LINE      CODE     ---       #239
      01001356H   LINE      CODE     ---       #254
      ---         BLOCKEND  ---      ---       LVL=0

      010013F1H   BLOCK     CODE     ---       LVL=0
      010013F1H   LINE      CODE     ---       #256
      010013F1H   LINE      CODE     ---       #257
      010013F1H   LINE      CODE     ---       #258
      010013F8H   LINE      CODE     ---       #259
      010013FCH   LINE      CODE     ---       #260
      01001400H   LINE      CODE     ---       #262
      01001407H   LINE      CODE     ---       #263
      01001407H   LINE      CODE     ---       #264
      0100140DH   LINE      CODE     ---       #265
      0100140DH   LINE      CODE     ---       #266
      01001410H   LINE      CODE     ---       #269
      01001410H   LINE      CODE     ---       #270
      01001416H   LINE      CODE     ---       #271
      01001418H   LINE      CODE     ---       #272
      0100141EH   LINE      CODE     ---       #273
      01001425H   LINE      CODE     ---       #274
      01001429H   LINE      CODE     ---       #275
      0100142DH   LINE      CODE     ---       #278
      0100143FH   LINE      CODE     ---       #279
      0100145DH   LINE      CODE     ---       #280
      0100145DH   LINE      CODE     ---       #281
      01001464H   LINE      CODE     ---       #283
      01001469H   LINE      CODE     ---       #284
      01001470H   LINE      CODE     ---       #288
      01001470H   LINE      CODE     ---       #289
      ---         BLOCKEND  ---      ---       LVL=0

      0100167BH   BLOCK     CODE     ---       LVL=0
      00000007H   SYMBOL    DATA     BYTE      ucMilliSec
LX51 LINKER/LOCATER V4.05                                                             04/27/2018  15:47:28  PAGE 25


      0100167BH   BLOCK     CODE     NEAR LAB  LVL=1
      0000000CH   SYMBOL    IDATA    BYTE      i
      ---         BLOCKEND  ---      ---       LVL=1
      0100167BH   LINE      CODE     ---       #310
      0100167BH   LINE      CODE     ---       #311
      0100167BH   LINE      CODE     ---       #314
      01001686H   LINE      CODE     ---       #315
      01001686H   LINE      CODE     ---       #316
      01001690H   LINE      CODE     ---       #317
      0100169EH   LINE      CODE     ---       #318
      010016A3H   LINE      CODE     ---       #319
      ---         BLOCKEND  ---      ---       LVL=0

      ---         MODULE    ---      ---       LL_MPU
      01001716H   PUBLIC    CODE     ---       ll_MPU_SetINTMask
      0100000EH   PUBLIC    CODE     ---       ll_MPU_EnableINT
      01000006H   PUBLIC    CODE     ---       ll_MPU_DisableINT
      00000098H.3 SFRSYM    DATA     BIT       TB08
      000000C8H   SFRSYM    DATA     BIT       T2I0
      000000C3H   SFRSYM    DATA     BYTE      CCH1
      000000C8H.1 SFRSYM    DATA     BIT       T2I1
      00000098H.7 SFRSYM    DATA     BIT       SM00
      000000C5H   SFRSYM    DATA     BYTE      CCH2
      00000098H.6 SFRSYM    DATA     BIT       SM01
      000000C7H   SFRSYM    DATA     BYTE      CCH3
      00000098H.5 SFRSYM    DATA     BIT       SM02
      000000D0H.6 SFRSYM    DATA     BIT       AC
      000000C2H   SFRSYM    DATA     BYTE      CCL1
      000000C4H   SFRSYM    DATA     BYTE      CCL2
      000000A8H.7 SFRSYM    DATA     BIT       EA
      000000C6H   SFRSYM    DATA     BYTE      CCL3
      000000C8H.3 SFRSYM    DATA     BIT       T2R0
      000000C8H.4 SFRSYM    DATA     BIT       T2R1
      000000D9H   SFRSYM    DATA     BYTE      ECNTCON
      00000083H   SFRSYM    DATA     BYTE      DPH0
      000000F3H   SFRSYM    DATA     BYTE      ECNT20
      000000A8H   SFRSYM    DATA     BYTE      IE
      000000F4H   SFRSYM    DATA     BYTE      ECNT21
      000000F5H   SFRSYM    DATA     BYTE      ECNT22
      000000F6H   SFRSYM    DATA     BYTE      ECNT23
      00000082H   SFRSYM    DATA     BYTE      DPL0
      000000F7H   SFRSYM    DATA     BYTE      ECNT24
      000000C8H.6 SFRSYM    DATA     BIT       I3FR
      000000EBH   SFRSYM    DATA     BYTE      TA
      00000098H.4 SFRSYM    DATA     BIT       REN0
      000000C9H   SFRSYM    DATA     BYTE      T2IF
      000000C8H.2 SFRSYM    DATA     BIT       T2CM
      000000A8H.4 SFRSYM    DATA     BIT       ES
      000000B8H   SFRSYM    DATA     BYTE      IP
      000000CEH   SFRSYM    DATA     BYTE      CCEN
      00000098H   SFRSYM    DATA     BIT       RI
      000000D0H.7 SFRSYM    DATA     BIT       CY
      00000098H.1 SFRSYM    DATA     BIT       TI
      00000093H   SFRSYM    DATA     BYTE      DPX0
      000000B8H.4 SFRSYM    DATA     BIT       PS
      00000081H   SFRSYM    DATA     BYTE      SP
      000000D0H.2 SFRSYM    DATA     BIT       OV
      000000E8H.4 SFRSYM    DATA     BIT       EWDI
      000000C8H.7 SFRSYM    DATA     BIT       T2PS
      000000D8H.3 SFRSYM    DATA     BIT       WDIF
      000000CBH   SFRSYM    DATA     BYTE      RCRH
      00000099H   SFRSYM    DATA     BYTE      SBUF
      00000087H   SFRSYM    DATA     BYTE      PCON
      0000009EH   SFRSYM    DATA     BYTE      IDXL
      000000CAH   SFRSYM    DATA     BYTE      RCRL
LX51 LINKER/LOCATER V4.05                                                             04/27/2018  15:47:28  PAGE 26


      00000098H   SFRSYM    DATA     BYTE      SCON
      000000F8H.5 SFRSYM    DATA     BIT       PWDI
      00000089H   SFRSYM    DATA     BYTE      TMOD
      00000088H   SFRSYM    DATA     BYTE      TCON
      00000088H.1 SFRSYM    DATA     BIT       IE0
      00000088H.3 SFRSYM    DATA     BIT       IE1
      000000DAH   SFRSYM    DATA     BYTE      ECNTCON2
      000000EAH   SFRSYM    DATA     BYTE      MXAX
      000000F0H   SFRSYM    DATA     BYTE      B
      000000D8H.2 SFRSYM    DATA     BIT       WTRF
      000000E0H   SFRSYM    DATA     BYTE      ACC
      000000A8H.4 SFRSYM    DATA     BIT       ES0
      000000A8H.1 SFRSYM    DATA     BIT       ET0
      000000A8H.3 SFRSYM    DATA     BIT       ET1
      00000088H.5 SFRSYM    DATA     BIT       TF0
      00000098H   SFRSYM    DATA     BIT       RI0
      00000088H.7 SFRSYM    DATA     BIT       TF1
      00000098H.2 SFRSYM    DATA     BIT       RB8
      0000008CH   SFRSYM    DATA     BYTE      TH0
      000000A8H   SFRSYM    DATA     BIT       EX0
      00000098H.1 SFRSYM    DATA     BIT       TI0
      00000088H   SFRSYM    DATA     BIT       IT0
      0000008DH   SFRSYM    DATA     BYTE      TH1
      000000A8H.2 SFRSYM    DATA     BIT       EX1
      00000098H.3 SFRSYM    DATA     BIT       TB8
      00000088H.2 SFRSYM    DATA     BIT       IT1
      000000CDH   SFRSYM    DATA     BYTE      TH2
      000000E8H   SFRSYM    DATA     BIT       EX2
      000000D0H   SFRSYM    DATA     BIT       P
      000000E8H.1 SFRSYM    DATA     BIT       EX3
      00000098H.7 SFRSYM    DATA     BIT       SM0
      0000008AH   SFRSYM    DATA     BYTE      TL0
      000000E8H.2 SFRSYM    DATA     BIT       EX4
      00000098H.6 SFRSYM    DATA     BIT       SM1
      0000008BH   SFRSYM    DATA     BYTE      TL1
      000000E8H.3 SFRSYM    DATA     BIT       EX5
      00000098H.5 SFRSYM    DATA     BIT       SM2
      000000CCH   SFRSYM    DATA     BYTE      TL2
      000000B8H.4 SFRSYM    DATA     BIT       PS0
      000000E8H   SFRSYM    DATA     BYTE      EIE
      00000092H   SFRSYM    DATA     BYTE      WTST
      000000B8H.1 SFRSYM    DATA     BIT       PT0
      00000091H   SFRSYM    DATA     BYTE      EIF
      000000D0H.3 SFRSYM    DATA     BIT       RS0
      000000B8H.3 SFRSYM    DATA     BIT       PT1
      000000D0H.4 SFRSYM    DATA     BIT       RS1
      00000088H.4 SFRSYM    DATA     BIT       TR0
      00000088H.6 SFRSYM    DATA     BIT       TR1
      000000B8H   SFRSYM    DATA     BIT       PX0
      000000B8H.2 SFRSYM    DATA     BIT       PX1
      0000008FH   SFRSYM    DATA     BYTE      MDH
      000000F8H   SFRSYM    DATA     BIT       PX2
      000000F8H.1 SFRSYM    DATA     BIT       PX3
      000000E3H   SFRSYM    DATA     BYTE      ECNT0
      000000F8H.2 SFRSYM    DATA     BIT       PX4
      000000E4H   SFRSYM    DATA     BYTE      ECNT1
      00000083H   SFRSYM    DATA     BYTE      DPH
      000000F8H.3 SFRSYM    DATA     BIT       PX5
      000000E5H   SFRSYM    DATA     BYTE      ECNT2
      000000F8H.4 SFRSYM    DATA     BIT       PX6
      000000E6H   SFRSYM    DATA     BYTE      ECNT3
      000000F8H   SFRSYM    DATA     BYTE      EIP
      000000E7H   SFRSYM    DATA     BYTE      ECNT4
      00000082H   SFRSYM    DATA     BYTE      DPL
      00000099H   SFRSYM    DATA     BYTE      SBUF0
LX51 LINKER/LOCATER V4.05                                                             04/27/2018  15:47:28  PAGE 27


      00000098H   SFRSYM    DATA     BYTE      SCON0
      00000093H   SFRSYM    DATA     BYTE      DPP
      00000098H.4 SFRSYM    DATA     BIT       REN
      000000D8H.4 SFRSYM    DATA     BIT       INT5F
      000000C8H   SFRSYM    DATA     BYTE      T2CON
      000000D8H.5 SFRSYM    DATA     BIT       INT6F
      000000D8H.6 SFRSYM    DATA     BIT       INT7F
      000000D8H.7 SFRSYM    DATA     BIT       INT8F
      0000008EH   SFRSYM    DATA     BYTE      CKCON
      000000D8H.1 SFRSYM    DATA     BIT       EWT
      00000096H   SFRSYM    DATA     BYTE      SBANK
      000000D0H.5 SFRSYM    DATA     BIT       F0
      000000D0H.1 SFRSYM    DATA     BIT       F1
      000000D0H   SFRSYM    DATA     BYTE      PSW
      00000098H.2 SFRSYM    DATA     BIT       RB08
      000000D8H   SFRSYM    DATA     BYTE      WDCON
      000000D8H   SFRSYM    DATA     BIT       RWT

      01000006H   BLOCK     CODE     ---       LVL=0
      01000006H   LINE      CODE     ---       #10
      01000006H   LINE      CODE     ---       #11
      01000006H   LINE      CODE     ---       #12
      ---         BLOCKEND  ---      ---       LVL=0

      0100000EH   BLOCK     CODE     ---       LVL=0
      0100000EH   LINE      CODE     ---       #15
      0100000EH   LINE      CODE     ---       #16
      0100000EH   LINE      CODE     ---       #17
      ---         BLOCKEND  ---      ---       LVL=0

      01001716H   BLOCK     CODE     ---       LVL=0
      01001716H   LINE      CODE     ---       #20
      01001716H   LINE      CODE     ---       #21
      01001716H   LINE      CODE     ---       #22
      01001719H   LINE      CODE     ---       #23
      0100171CH   LINE      CODE     ---       #25
      0100171FH   LINE      CODE     ---       #26
      ---         BLOCKEND  ---      ---       LVL=0

      ---         MODULE    ---      ---       LL_INIT
      0100172DH   PUBLIC    CODE     ---       ll_SetVerNum
      01000016H   PUBLIC    CODE     ---       ll_MPUInit
      00000098H.3 SFRSYM    DATA     BIT       TB08
      000000C8H   SFRSYM    DATA     BIT       T2I0
      000000C3H   SFRSYM    DATA     BYTE      CCH1
      000000C8H.1 SFRSYM    DATA     BIT       T2I1
      00000098H.7 SFRSYM    DATA     BIT       SM00
      000000C5H   SFRSYM    DATA     BYTE      CCH2
      00000098H.6 SFRSYM    DATA     BIT       SM01
      000000C7H   SFRSYM    DATA     BYTE      CCH3
      00000098H.5 SFRSYM    DATA     BIT       SM02
      000000D0H.6 SFRSYM    DATA     BIT       AC
      000000C2H   SFRSYM    DATA     BYTE      CCL1
      000000C4H   SFRSYM    DATA     BYTE      CCL2
      000000A8H.7 SFRSYM    DATA     BIT       EA
      000000C6H   SFRSYM    DATA     BYTE      CCL3
      000000C8H.3 SFRSYM    DATA     BIT       T2R0
      000000C8H.4 SFRSYM    DATA     BIT       T2R1
      000000D9H   SFRSYM    DATA     BYTE      ECNTCON
      00000083H   SFRSYM    DATA     BYTE      DPH0
      000000F3H   SFRSYM    DATA     BYTE      ECNT20
      000000A8H   SFRSYM    DATA     BYTE      IE
      000000F4H   SFRSYM    DATA     BYTE      ECNT21
      000000F5H   SFRSYM    DATA     BYTE      ECNT22
      000000F6H   SFRSYM    DATA     BYTE      ECNT23
LX51 LINKER/LOCATER V4.05                                                             04/27/2018  15:47:28  PAGE 28


      00000082H   SFRSYM    DATA     BYTE      DPL0
      000000F7H   SFRSYM    DATA     BYTE      ECNT24
      000000C8H.6 SFRSYM    DATA     BIT       I3FR
      000000EBH   SFRSYM    DATA     BYTE      TA
      00000098H.4 SFRSYM    DATA     BIT       REN0
      000000C9H   SFRSYM    DATA     BYTE      T2IF
      000000C8H.2 SFRSYM    DATA     BIT       T2CM
      000000A8H.4 SFRSYM    DATA     BIT       ES
      000000B8H   SFRSYM    DATA     BYTE      IP
      000000CEH   SFRSYM    DATA     BYTE      CCEN
      00000098H   SFRSYM    DATA     BIT       RI
      000000D0H.7 SFRSYM    DATA     BIT       CY
      00000098H.1 SFRSYM    DATA     BIT       TI
      00000093H   SFRSYM    DATA     BYTE      DPX0
      000000B8H.4 SFRSYM    DATA     BIT       PS
      00000081H   SFRSYM    DATA     BYTE      SP
      000000D0H.2 SFRSYM    DATA     BIT       OV
      000000E8H.4 SFRSYM    DATA     BIT       EWDI
      000000C8H.7 SFRSYM    DATA     BIT       T2PS
      000000D8H.3 SFRSYM    DATA     BIT       WDIF
      000000CBH   SFRSYM    DATA     BYTE      RCRH
      00000099H   SFRSYM    DATA     BYTE      SBUF
      00000087H   SFRSYM    DATA     BYTE      PCON
      0000009EH   SFRSYM    DATA     BYTE      IDXL
      000000CAH   SFRSYM    DATA     BYTE      RCRL
      00000098H   SFRSYM    DATA     BYTE      SCON
      000000F8H.5 SFRSYM    DATA     BIT       PWDI
      00000089H   SFRSYM    DATA     BYTE      TMOD
      00000088H   SFRSYM    DATA     BYTE      TCON
      00000088H.1 SFRSYM    DATA     BIT       IE0
      00000088H.3 SFRSYM    DATA     BIT       IE1
      000000DAH   SFRSYM    DATA     BYTE      ECNTCON2
      000000EAH   SFRSYM    DATA     BYTE      MXAX
      000000F0H   SFRSYM    DATA     BYTE      B
      000000D8H.2 SFRSYM    DATA     BIT       WTRF
      000000E0H   SFRSYM    DATA     BYTE      ACC
      000000A8H.4 SFRSYM    DATA     BIT       ES0
      000000A8H.1 SFRSYM    DATA     BIT       ET0
      000000A8H.3 SFRSYM    DATA     BIT       ET1
      00000088H.5 SFRSYM    DATA     BIT       TF0
      00000098H   SFRSYM    DATA     BIT       RI0
      00000088H.7 SFRSYM    DATA     BIT       TF1
      00000098H.2 SFRSYM    DATA     BIT       RB8
      0000008CH   SFRSYM    DATA     BYTE      TH0
      000000A8H   SFRSYM    DATA     BIT       EX0
      00000098H.1 SFRSYM    DATA     BIT       TI0
      00000088H   SFRSYM    DATA     BIT       IT0
      0000008DH   SFRSYM    DATA     BYTE      TH1
      000000A8H.2 SFRSYM    DATA     BIT       EX1
      00000098H.3 SFRSYM    DATA     BIT       TB8
      00000088H.2 SFRSYM    DATA     BIT       IT1
      000000CDH   SFRSYM    DATA     BYTE      TH2
      000000E8H   SFRSYM    DATA     BIT       EX2
      000000D0H   SFRSYM    DATA     BIT       P
      000000E8H.1 SFRSYM    DATA     BIT       EX3
      00000098H.7 SFRSYM    DATA     BIT       SM0
      0000008AH   SFRSYM    DATA     BYTE      TL0
      000000E8H.2 SFRSYM    DATA     BIT       EX4
      00000098H.6 SFRSYM    DATA     BIT       SM1
      0000008BH   SFRSYM    DATA     BYTE      TL1
      000000E8H.3 SFRSYM    DATA     BIT       EX5
      00000098H.5 SFRSYM    DATA     BIT       SM2
      000000CCH   SFRSYM    DATA     BYTE      TL2
      000000B8H.4 SFRSYM    DATA     BIT       PS0
      000000E8H   SFRSYM    DATA     BYTE      EIE
LX51 LINKER/LOCATER V4.05                                                             04/27/2018  15:47:28  PAGE 29


      00000092H   SFRSYM    DATA     BYTE      WTST
      000000B8H.1 SFRSYM    DATA     BIT       PT0
      00000091H   SFRSYM    DATA     BYTE      EIF
      000000D0H.3 SFRSYM    DATA     BIT       RS0
      000000B8H.3 SFRSYM    DATA     BIT       PT1
      000000D0H.4 SFRSYM    DATA     BIT       RS1
      00000088H.4 SFRSYM    DATA     BIT       TR0
      00000088H.6 SFRSYM    DATA     BIT       TR1
      000000B8H   SFRSYM    DATA     BIT       PX0
      000000B8H.2 SFRSYM    DATA     BIT       PX1
      0000008FH   SFRSYM    DATA     BYTE      MDH
      000000F8H   SFRSYM    DATA     BIT       PX2
      000000F8H.1 SFRSYM    DATA     BIT       PX3
      000000E3H   SFRSYM    DATA     BYTE      ECNT0
      000000F8H.2 SFRSYM    DATA     BIT       PX4
      000000E4H   SFRSYM    DATA     BYTE      ECNT1
      00000083H   SFRSYM    DATA     BYTE      DPH
      000000F8H.3 SFRSYM    DATA     BIT       PX5
      000000E5H   SFRSYM    DATA     BYTE      ECNT2
      000000F8H.4 SFRSYM    DATA     BIT       PX6
      000000E6H   SFRSYM    DATA     BYTE      ECNT3
      000000F8H   SFRSYM    DATA     BYTE      EIP
      000000E7H   SFRSYM    DATA     BYTE      ECNT4
      00000082H   SFRSYM    DATA     BYTE      DPL
      00000099H   SFRSYM    DATA     BYTE      SBUF0
      00000098H   SFRSYM    DATA     BYTE      SCON0
      00000093H   SFRSYM    DATA     BYTE      DPP
      00000098H.4 SFRSYM    DATA     BIT       REN
      000000D8H.4 SFRSYM    DATA     BIT       INT5F
      000000C8H   SFRSYM    DATA     BYTE      T2CON
      000000D8H.5 SFRSYM    DATA     BIT       INT6F
      000000D8H.6 SFRSYM    DATA     BIT       INT7F
      000000D8H.7 SFRSYM    DATA     BIT       INT8F
      0000008EH   SFRSYM    DATA     BYTE      CKCON
      000000D8H.1 SFRSYM    DATA     BIT       EWT
      00000096H   SFRSYM    DATA     BYTE      SBANK
      000000D0H.5 SFRSYM    DATA     BIT       F0
      000000D0H.1 SFRSYM    DATA     BIT       F1
      000000D0H   SFRSYM    DATA     BYTE      PSW
      00000098H.2 SFRSYM    DATA     BIT       RB08
      000000D8H   SFRSYM    DATA     BYTE      WDCON
      000000D8H   SFRSYM    DATA     BIT       RWT

      01000016H   BLOCK     CODE     ---       LVL=0
      01000016H   LINE      CODE     ---       #9
      01000016H   LINE      CODE     ---       #10
      01000016H   LINE      CODE     ---       #11
      ---         BLOCKEND  ---      ---       LVL=0

      0100172DH   BLOCK     CODE     ---       LVL=0
      0100172DH   LINE      CODE     ---       #14
      0100172DH   LINE      CODE     ---       #15
      0100172DH   LINE      CODE     ---       #16
      ---         BLOCKEND  ---      ---       LVL=0

      ---         MODULE    ---      ---       TIMER0INT1
      01001649H   PUBLIC    CODE     ---       timer0_IT
      00000098H.3 SFRSYM    DATA     BIT       TB08
      000000C8H   SFRSYM    DATA     BIT       T2I0
      000000C3H   SFRSYM    DATA     BYTE      CCH1
      000000C8H.1 SFRSYM    DATA     BIT       T2I1
      00000098H.7 SFRSYM    DATA     BIT       SM00
      000000C5H   SFRSYM    DATA     BYTE      CCH2
      00000098H.6 SFRSYM    DATA     BIT       SM01
      000000C7H   SFRSYM    DATA     BYTE      CCH3
LX51 LINKER/LOCATER V4.05                                                             04/27/2018  15:47:28  PAGE 30


      00000098H.5 SFRSYM    DATA     BIT       SM02
      000000D0H.6 SFRSYM    DATA     BIT       AC
      000000C2H   SFRSYM    DATA     BYTE      CCL1
      000000C4H   SFRSYM    DATA     BYTE      CCL2
      000000A8H.7 SFRSYM    DATA     BIT       EA
      000000C6H   SFRSYM    DATA     BYTE      CCL3
      000000C8H.3 SFRSYM    DATA     BIT       T2R0
      000000C8H.4 SFRSYM    DATA     BIT       T2R1
      000000D9H   SFRSYM    DATA     BYTE      ECNTCON
      00000083H   SFRSYM    DATA     BYTE      DPH0
      000000F3H   SFRSYM    DATA     BYTE      ECNT20
      000000A8H   SFRSYM    DATA     BYTE      IE
      000000F4H   SFRSYM    DATA     BYTE      ECNT21
      000000F5H   SFRSYM    DATA     BYTE      ECNT22
      000000F6H   SFRSYM    DATA     BYTE      ECNT23
      00000082H   SFRSYM    DATA     BYTE      DPL0
      000000F7H   SFRSYM    DATA     BYTE      ECNT24
      000000C8H.6 SFRSYM    DATA     BIT       I3FR
      000000EBH   SFRSYM    DATA     BYTE      TA
      00000098H.4 SFRSYM    DATA     BIT       REN0
      000000C9H   SFRSYM    DATA     BYTE      T2IF
      000000C8H.2 SFRSYM    DATA     BIT       T2CM
      000000A8H.4 SFRSYM    DATA     BIT       ES
      000000B8H   SFRSYM    DATA     BYTE      IP
      000000CEH   SFRSYM    DATA     BYTE      CCEN
      00000098H   SFRSYM    DATA     BIT       RI
      000000D0H.7 SFRSYM    DATA     BIT       CY
      00000098H.1 SFRSYM    DATA     BIT       TI
      00000093H   SFRSYM    DATA     BYTE      DPX0
      000000B8H.4 SFRSYM    DATA     BIT       PS
      00000081H   SFRSYM    DATA     BYTE      SP
      000000D0H.2 SFRSYM    DATA     BIT       OV
      000000E8H.4 SFRSYM    DATA     BIT       EWDI
      000000C8H.7 SFRSYM    DATA     BIT       T2PS
      000000D8H.3 SFRSYM    DATA     BIT       WDIF
      000000CBH   SFRSYM    DATA     BYTE      RCRH
      00000099H   SFRSYM    DATA     BYTE      SBUF
      00000087H   SFRSYM    DATA     BYTE      PCON
      0000009EH   SFRSYM    DATA     BYTE      IDXL
      000000CAH   SFRSYM    DATA     BYTE      RCRL
      00000098H   SFRSYM    DATA     BYTE      SCON
      000000F8H.5 SFRSYM    DATA     BIT       PWDI
      00000089H   SFRSYM    DATA     BYTE      TMOD
      00000088H   SFRSYM    DATA     BYTE      TCON
      00000088H.1 SFRSYM    DATA     BIT       IE0
      00000088H.3 SFRSYM    DATA     BIT       IE1
      000000DAH   SFRSYM    DATA     BYTE      ECNTCON2
      000000EAH   SFRSYM    DATA     BYTE      MXAX
      000000F0H   SFRSYM    DATA     BYTE      B
      000000D8H.2 SFRSYM    DATA     BIT       WTRF
      000000E0H   SFRSYM    DATA     BYTE      ACC
      000000A8H.4 SFRSYM    DATA     BIT       ES0
      000000A8H.1 SFRSYM    DATA     BIT       ET0
      000000A8H.3 SFRSYM    DATA     BIT       ET1
      00000088H.5 SFRSYM    DATA     BIT       TF0
      00000098H   SFRSYM    DATA     BIT       RI0
      00000088H.7 SFRSYM    DATA     BIT       TF1
      00000098H.2 SFRSYM    DATA     BIT       RB8
      0000008CH   SFRSYM    DATA     BYTE      TH0
      000000A8H   SFRSYM    DATA     BIT       EX0
      00000098H.1 SFRSYM    DATA     BIT       TI0
      00000088H   SFRSYM    DATA     BIT       IT0
      0000008DH   SFRSYM    DATA     BYTE      TH1
      000000A8H.2 SFRSYM    DATA     BIT       EX1
      00000098H.3 SFRSYM    DATA     BIT       TB8
LX51 LINKER/LOCATER V4.05                                                             04/27/2018  15:47:28  PAGE 31


      00000088H.2 SFRSYM    DATA     BIT       IT1
      000000CDH   SFRSYM    DATA     BYTE      TH2
      000000E8H   SFRSYM    DATA     BIT       EX2
      000000D0H   SFRSYM    DATA     BIT       P
      000000E8H.1 SFRSYM    DATA     BIT       EX3
      00000098H.7 SFRSYM    DATA     BIT       SM0
      0000008AH   SFRSYM    DATA     BYTE      TL0
      000000E8H.2 SFRSYM    DATA     BIT       EX4
      00000098H.6 SFRSYM    DATA     BIT       SM1
      0000008BH   SFRSYM    DATA     BYTE      TL1
      000000E8H.3 SFRSYM    DATA     BIT       EX5
      00000098H.5 SFRSYM    DATA     BIT       SM2
      000000CCH   SFRSYM    DATA     BYTE      TL2
      000000B8H.4 SFRSYM    DATA     BIT       PS0
      000000E8H   SFRSYM    DATA     BYTE      EIE
      00000092H   SFRSYM    DATA     BYTE      WTST
      000000B8H.1 SFRSYM    DATA     BIT       PT0
      00000091H   SFRSYM    DATA     BYTE      EIF
      000000D0H.3 SFRSYM    DATA     BIT       RS0
      000000B8H.3 SFRSYM    DATA     BIT       PT1
      000000D0H.4 SFRSYM    DATA     BIT       RS1
      00000088H.4 SFRSYM    DATA     BIT       TR0
      00000088H.6 SFRSYM    DATA     BIT       TR1
      000000B8H   SFRSYM    DATA     BIT       PX0
      000000B8H.2 SFRSYM    DATA     BIT       PX1
      0000008FH   SFRSYM    DATA     BYTE      MDH
      000000F8H   SFRSYM    DATA     BIT       PX2
      000000F8H.1 SFRSYM    DATA     BIT       PX3
      000000E3H   SFRSYM    DATA     BYTE      ECNT0
      000000F8H.2 SFRSYM    DATA     BIT       PX4
      000000E4H   SFRSYM    DATA     BYTE      ECNT1
      00000083H   SFRSYM    DATA     BYTE      DPH
      000000F8H.3 SFRSYM    DATA     BIT       PX5
      000000E5H   SFRSYM    DATA     BYTE      ECNT2
      000000F8H.4 SFRSYM    DATA     BIT       PX6
      000000E6H   SFRSYM    DATA     BYTE      ECNT3
      000000F8H   SFRSYM    DATA     BYTE      EIP
      000000E7H   SFRSYM    DATA     BYTE      ECNT4
      00000082H   SFRSYM    DATA     BYTE      DPL
      00000099H   SFRSYM    DATA     BYTE      SBUF0
      00000098H   SFRSYM    DATA     BYTE      SCON0
      00000093H   SFRSYM    DATA     BYTE      DPP
      00000098H.4 SFRSYM    DATA     BIT       REN
      000000D8H.4 SFRSYM    DATA     BIT       INT5F
      000000C8H   SFRSYM    DATA     BYTE      T2CON
      000000D8H.5 SFRSYM    DATA     BIT       INT6F
      000000D8H.6 SFRSYM    DATA     BIT       INT7F
      000000D8H.7 SFRSYM    DATA     BIT       INT8F
      0000008EH   SFRSYM    DATA     BYTE      CKCON
      000000D8H.1 SFRSYM    DATA     BIT       EWT
      00000096H   SFRSYM    DATA     BYTE      SBANK
      000000D0H.5 SFRSYM    DATA     BIT       F0
      000000D0H.1 SFRSYM    DATA     BIT       F1
      000000D0H   SFRSYM    DATA     BYTE      PSW
      00000098H.2 SFRSYM    DATA     BIT       RB08
      000000D8H   SFRSYM    DATA     BYTE      WDCON
      000000D8H   SFRSYM    DATA     BIT       RWT

      01001649H   BLOCK     CODE     ---       LVL=0
      01001649H   LINE      CODE     ---       #6
      01001651H   LINE      CODE     ---       #8
      01001653H   LINE      CODE     ---       #10
      01001655H   LINE      CODE     ---       #12
      0100165BH   LINE      CODE     ---       #13
      01001661H   LINE      CODE     ---       #16
LX51 LINKER/LOCATER V4.05                                                             04/27/2018  15:47:28  PAGE 32


      01001664H   LINE      CODE     ---       #17
      01001667H   LINE      CODE     ---       #21
      0100166EH   LINE      CODE     ---       #22
      0100166EH   LINE      CODE     ---       #23
      01001670H   LINE      CODE     ---       #24
      01001670H   LINE      CODE     ---       #26
      01001672H   LINE      CODE     ---       #27
      ---         BLOCKEND  ---      ---       LVL=0

      ---         MODULE    ---      ---       TIMER1INT3
      01001471H   PUBLIC    CODE     ---       timer1_INT
      00000098H.3 SFRSYM    DATA     BIT       TB08
      000000C8H   SFRSYM    DATA     BIT       T2I0
      000000C3H   SFRSYM    DATA     BYTE      CCH1
      000000C8H.1 SFRSYM    DATA     BIT       T2I1
      00000098H.7 SFRSYM    DATA     BIT       SM00
      000000C5H   SFRSYM    DATA     BYTE      CCH2
      00000098H.6 SFRSYM    DATA     BIT       SM01
      000000C7H   SFRSYM    DATA     BYTE      CCH3
      00000098H.5 SFRSYM    DATA     BIT       SM02
      000000D0H.6 SFRSYM    DATA     BIT       AC
      000000C2H   SFRSYM    DATA     BYTE      CCL1
      000000C4H   SFRSYM    DATA     BYTE      CCL2
      000000A8H.7 SFRSYM    DATA     BIT       EA
      000000C6H   SFRSYM    DATA     BYTE      CCL3
      000000C8H.3 SFRSYM    DATA     BIT       T2R0
      000000C8H.4 SFRSYM    DATA     BIT       T2R1
      000000D9H   SFRSYM    DATA     BYTE      ECNTCON
      00000083H   SFRSYM    DATA     BYTE      DPH0
      000000F3H   SFRSYM    DATA     BYTE      ECNT20
      000000A8H   SFRSYM    DATA     BYTE      IE
      000000F4H   SFRSYM    DATA     BYTE      ECNT21
      000000F5H   SFRSYM    DATA     BYTE      ECNT22
      000000F6H   SFRSYM    DATA     BYTE      ECNT23
      00000082H   SFRSYM    DATA     BYTE      DPL0
      000000F7H   SFRSYM    DATA     BYTE      ECNT24
      000000C8H.6 SFRSYM    DATA     BIT       I3FR
      000000EBH   SFRSYM    DATA     BYTE      TA
      00000098H.4 SFRSYM    DATA     BIT       REN0
      000000C9H   SFRSYM    DATA     BYTE      T2IF
      000000C8H.2 SFRSYM    DATA     BIT       T2CM
      000000A8H.4 SFRSYM    DATA     BIT       ES
      000000B8H   SFRSYM    DATA     BYTE      IP
      000000CEH   SFRSYM    DATA     BYTE      CCEN
      00000098H   SFRSYM    DATA     BIT       RI
      000000D0H.7 SFRSYM    DATA     BIT       CY
      00000098H.1 SFRSYM    DATA     BIT       TI
      00000093H   SFRSYM    DATA     BYTE      DPX0
      000000B8H.4 SFRSYM    DATA     BIT       PS
      00000081H   SFRSYM    DATA     BYTE      SP
      000000D0H.2 SFRSYM    DATA     BIT       OV
      000000E8H.4 SFRSYM    DATA     BIT       EWDI
      000000C8H.7 SFRSYM    DATA     BIT       T2PS
      000000D8H.3 SFRSYM    DATA     BIT       WDIF
      000000CBH   SFRSYM    DATA     BYTE      RCRH
      00000099H   SFRSYM    DATA     BYTE      SBUF
      00000087H   SFRSYM    DATA     BYTE      PCON
      0000009EH   SFRSYM    DATA     BYTE      IDXL
      000000CAH   SFRSYM    DATA     BYTE      RCRL
      00000098H   SFRSYM    DATA     BYTE      SCON
      000000F8H.5 SFRSYM    DATA     BIT       PWDI
      00000089H   SFRSYM    DATA     BYTE      TMOD
      00000088H   SFRSYM    DATA     BYTE      TCON
      00000088H.1 SFRSYM    DATA     BIT       IE0
      00000088H.3 SFRSYM    DATA     BIT       IE1
LX51 LINKER/LOCATER V4.05                                                             04/27/2018  15:47:28  PAGE 33


      000000DAH   SFRSYM    DATA     BYTE      ECNTCON2
      000000EAH   SFRSYM    DATA     BYTE      MXAX
      000000F0H   SFRSYM    DATA     BYTE      B
      000000D8H.2 SFRSYM    DATA     BIT       WTRF
      000000E0H   SFRSYM    DATA     BYTE      ACC
      000000A8H.4 SFRSYM    DATA     BIT       ES0
      000000A8H.1 SFRSYM    DATA     BIT       ET0
      000000A8H.3 SFRSYM    DATA     BIT       ET1
      00000088H.5 SFRSYM    DATA     BIT       TF0
      00000098H   SFRSYM    DATA     BIT       RI0
      00000088H.7 SFRSYM    DATA     BIT       TF1
      00000098H.2 SFRSYM    DATA     BIT       RB8
      0000008CH   SFRSYM    DATA     BYTE      TH0
      000000A8H   SFRSYM    DATA     BIT       EX0
      00000098H.1 SFRSYM    DATA     BIT       TI0
      00000088H   SFRSYM    DATA     BIT       IT0
      0000008DH   SFRSYM    DATA     BYTE      TH1
      000000A8H.2 SFRSYM    DATA     BIT       EX1
      00000098H.3 SFRSYM    DATA     BIT       TB8
      00000088H.2 SFRSYM    DATA     BIT       IT1
      000000CDH   SFRSYM    DATA     BYTE      TH2
      000000E8H   SFRSYM    DATA     BIT       EX2
      000000D0H   SFRSYM    DATA     BIT       P
      000000E8H.1 SFRSYM    DATA     BIT       EX3
      00000098H.7 SFRSYM    DATA     BIT       SM0
      0000008AH   SFRSYM    DATA     BYTE      TL0
      000000E8H.2 SFRSYM    DATA     BIT       EX4
      00000098H.6 SFRSYM    DATA     BIT       SM1
      0000008BH   SFRSYM    DATA     BYTE      TL1
      000000E8H.3 SFRSYM    DATA     BIT       EX5
      00000098H.5 SFRSYM    DATA     BIT       SM2
      000000CCH   SFRSYM    DATA     BYTE      TL2
      000000B8H.4 SFRSYM    DATA     BIT       PS0
      000000E8H   SFRSYM    DATA     BYTE      EIE
      00000092H   SFRSYM    DATA     BYTE      WTST
      000000B8H.1 SFRSYM    DATA     BIT       PT0
      00000091H   SFRSYM    DATA     BYTE      EIF
      000000D0H.3 SFRSYM    DATA     BIT       RS0
      000000B8H.3 SFRSYM    DATA     BIT       PT1
      000000D0H.4 SFRSYM    DATA     BIT       RS1
      00000088H.4 SFRSYM    DATA     BIT       TR0
      00000088H.6 SFRSYM    DATA     BIT       TR1
      000000B8H   SFRSYM    DATA     BIT       PX0
      000000B8H.2 SFRSYM    DATA     BIT       PX1
      0000008FH   SFRSYM    DATA     BYTE      MDH
      000000F8H   SFRSYM    DATA     BIT       PX2
      000000F8H.1 SFRSYM    DATA     BIT       PX3
      000000E3H   SFRSYM    DATA     BYTE      ECNT0
      000000F8H.2 SFRSYM    DATA     BIT       PX4
      000000E4H   SFRSYM    DATA     BYTE      ECNT1
      00000083H   SFRSYM    DATA     BYTE      DPH
      000000F8H.3 SFRSYM    DATA     BIT       PX5
      000000E5H   SFRSYM    DATA     BYTE      ECNT2
      000000F8H.4 SFRSYM    DATA     BIT       PX6
      000000E6H   SFRSYM    DATA     BYTE      ECNT3
      000000F8H   SFRSYM    DATA     BYTE      EIP
      000000E7H   SFRSYM    DATA     BYTE      ECNT4
      00000082H   SFRSYM    DATA     BYTE      DPL
      00000099H   SFRSYM    DATA     BYTE      SBUF0
      00000098H   SFRSYM    DATA     BYTE      SCON0
      00000093H   SFRSYM    DATA     BYTE      DPP
      00000098H.4 SFRSYM    DATA     BIT       REN
      000000D8H.4 SFRSYM    DATA     BIT       INT5F
      000000C8H   SFRSYM    DATA     BYTE      T2CON
      000000D8H.5 SFRSYM    DATA     BIT       INT6F
LX51 LINKER/LOCATER V4.05                                                             04/27/2018  15:47:28  PAGE 34


      000000D8H.6 SFRSYM    DATA     BIT       INT7F
      000000D8H.7 SFRSYM    DATA     BIT       INT8F
      0000008EH   SFRSYM    DATA     BYTE      CKCON
      000000D8H.1 SFRSYM    DATA     BIT       EWT
      00000096H   SFRSYM    DATA     BYTE      SBANK
      000000D0H.5 SFRSYM    DATA     BIT       F0
      000000D0H.1 SFRSYM    DATA     BIT       F1
      000000D0H   SFRSYM    DATA     BYTE      PSW
      00000098H.2 SFRSYM    DATA     BIT       RB08
      000000D8H   SFRSYM    DATA     BYTE      WDCON
      000000D8H   SFRSYM    DATA     BIT       RWT

      01001471H   BLOCK     CODE     ---       LVL=0
      01001471H   LINE      CODE     ---       #6
      0100147EH   LINE      CODE     ---       #8
      01001480H   LINE      CODE     ---       #10
      01001482H   LINE      CODE     ---       #12
      01001488H   LINE      CODE     ---       #13
      0100148EH   LINE      CODE     ---       #16
      01001491H   LINE      CODE     ---       #17
      01001494H   LINE      CODE     ---       #19
      01001499H   LINE      CODE     ---       #20
      01001499H   LINE      CODE     ---       #22
      010014A0H   LINE      CODE     ---       #23
      010014A6H   LINE      CODE     ---       #24
      010014ADH   LINE      CODE     ---       #25
      010014B1H   LINE      CODE     ---       #26
      010014B8H   LINE      CODE     ---       #27
      010014B8H   LINE      CODE     ---       #28
      010014BEH   LINE      CODE     ---       #29
      010014C0H   LINE      CODE     ---       #30
      010014C6H   LINE      CODE     ---       #31
      010014CDH   LINE      CODE     ---       #32
      010014D1H   LINE      CODE     ---       #33
      010014D5H   LINE      CODE     ---       #37
      010014DAH   LINE      CODE     ---       #39
      010014E0H   LINE      CODE     ---       #40
      010014E0H   LINE      CODE     ---       #42
      010014E2H   LINE      CODE     ---       #43
      ---         BLOCKEND  ---      ---       LVL=0

      ---         MODULE    ---      ---       EXT0INT0
      010014EDH   PUBLIC    CODE     ---       ext0_INT
      00000098H.3 SFRSYM    DATA     BIT       TB08
      000000C8H   SFRSYM    DATA     BIT       T2I0
      000000C3H   SFRSYM    DATA     BYTE      CCH1
      000000C8H.1 SFRSYM    DATA     BIT       T2I1
      00000098H.7 SFRSYM    DATA     BIT       SM00
      000000C5H   SFRSYM    DATA     BYTE      CCH2
      00000098H.6 SFRSYM    DATA     BIT       SM01
      000000C7H   SFRSYM    DATA     BYTE      CCH3
      00000098H.5 SFRSYM    DATA     BIT       SM02
      000000D0H.6 SFRSYM    DATA     BIT       AC
      000000C2H   SFRSYM    DATA     BYTE      CCL1
      000000C4H   SFRSYM    DATA     BYTE      CCL2
      000000A8H.7 SFRSYM    DATA     BIT       EA
      000000C6H   SFRSYM    DATA     BYTE      CCL3
      000000C8H.3 SFRSYM    DATA     BIT       T2R0
      000000C8H.4 SFRSYM    DATA     BIT       T2R1
      000000D9H   SFRSYM    DATA     BYTE      ECNTCON
      00000083H   SFRSYM    DATA     BYTE      DPH0
      000000F3H   SFRSYM    DATA     BYTE      ECNT20
      000000A8H   SFRSYM    DATA     BYTE      IE
      000000F4H   SFRSYM    DATA     BYTE      ECNT21
      000000F5H   SFRSYM    DATA     BYTE      ECNT22
LX51 LINKER/LOCATER V4.05                                                             04/27/2018  15:47:28  PAGE 35


      000000F6H   SFRSYM    DATA     BYTE      ECNT23
      00000082H   SFRSYM    DATA     BYTE      DPL0
      000000F7H   SFRSYM    DATA     BYTE      ECNT24
      000000C8H.6 SFRSYM    DATA     BIT       I3FR
      000000EBH   SFRSYM    DATA     BYTE      TA
      00000098H.4 SFRSYM    DATA     BIT       REN0
      000000C9H   SFRSYM    DATA     BYTE      T2IF
      000000C8H.2 SFRSYM    DATA     BIT       T2CM
      000000A8H.4 SFRSYM    DATA     BIT       ES
      000000B8H   SFRSYM    DATA     BYTE      IP
      000000CEH   SFRSYM    DATA     BYTE      CCEN
      00000098H   SFRSYM    DATA     BIT       RI
      000000D0H.7 SFRSYM    DATA     BIT       CY
      00000098H.1 SFRSYM    DATA     BIT       TI
      00000093H   SFRSYM    DATA     BYTE      DPX0
      000000B8H.4 SFRSYM    DATA     BIT       PS
      00000081H   SFRSYM    DATA     BYTE      SP
      000000D0H.2 SFRSYM    DATA     BIT       OV
      000000E8H.4 SFRSYM    DATA     BIT       EWDI
      000000C8H.7 SFRSYM    DATA     BIT       T2PS
      000000D8H.3 SFRSYM    DATA     BIT       WDIF
      000000CBH   SFRSYM    DATA     BYTE      RCRH
      00000099H   SFRSYM    DATA     BYTE      SBUF
      00000087H   SFRSYM    DATA     BYTE      PCON
      0000009EH   SFRSYM    DATA     BYTE      IDXL
      000000CAH   SFRSYM    DATA     BYTE      RCRL
      00000098H   SFRSYM    DATA     BYTE      SCON
      000000F8H.5 SFRSYM    DATA     BIT       PWDI
      00000089H   SFRSYM    DATA     BYTE      TMOD
      00000088H   SFRSYM    DATA     BYTE      TCON
      00000088H.1 SFRSYM    DATA     BIT       IE0
      00000088H.3 SFRSYM    DATA     BIT       IE1
      000000DAH   SFRSYM    DATA     BYTE      ECNTCON2
      000000EAH   SFRSYM    DATA     BYTE      MXAX
      000000F0H   SFRSYM    DATA     BYTE      B
      000000D8H.2 SFRSYM    DATA     BIT       WTRF
      000000E0H   SFRSYM    DATA     BYTE      ACC
      000000A8H.4 SFRSYM    DATA     BIT       ES0
      000000A8H.1 SFRSYM    DATA     BIT       ET0
      000000A8H.3 SFRSYM    DATA     BIT       ET1
      00000088H.5 SFRSYM    DATA     BIT       TF0
      00000098H   SFRSYM    DATA     BIT       RI0
      00000088H.7 SFRSYM    DATA     BIT       TF1
      00000098H.2 SFRSYM    DATA     BIT       RB8
      0000008CH   SFRSYM    DATA     BYTE      TH0
      000000A8H   SFRSYM    DATA     BIT       EX0
      00000098H.1 SFRSYM    DATA     BIT       TI0
      00000088H   SFRSYM    DATA     BIT       IT0
      0000008DH   SFRSYM    DATA     BYTE      TH1
      000000A8H.2 SFRSYM    DATA     BIT       EX1
      00000098H.3 SFRSYM    DATA     BIT       TB8
      00000088H.2 SFRSYM    DATA     BIT       IT1
      000000CDH   SFRSYM    DATA     BYTE      TH2
      000000E8H   SFRSYM    DATA     BIT       EX2
      000000D0H   SFRSYM    DATA     BIT       P
      000000E8H.1 SFRSYM    DATA     BIT       EX3
      00000098H.7 SFRSYM    DATA     BIT       SM0
      0000008AH   SFRSYM    DATA     BYTE      TL0
      000000E8H.2 SFRSYM    DATA     BIT       EX4
      00000098H.6 SFRSYM    DATA     BIT       SM1
      0000008BH   SFRSYM    DATA     BYTE      TL1
      000000E8H.3 SFRSYM    DATA     BIT       EX5
      00000098H.5 SFRSYM    DATA     BIT       SM2
      000000CCH   SFRSYM    DATA     BYTE      TL2
      000000B8H.4 SFRSYM    DATA     BIT       PS0
LX51 LINKER/LOCATER V4.05                                                             04/27/2018  15:47:28  PAGE 36


      000000E8H   SFRSYM    DATA     BYTE      EIE
      00000092H   SFRSYM    DATA     BYTE      WTST
      000000B8H.1 SFRSYM    DATA     BIT       PT0
      00000091H   SFRSYM    DATA     BYTE      EIF
      000000D0H.3 SFRSYM    DATA     BIT       RS0
      000000B8H.3 SFRSYM    DATA     BIT       PT1
      000000D0H.4 SFRSYM    DATA     BIT       RS1
      00000088H.4 SFRSYM    DATA     BIT       TR0
      00000088H.6 SFRSYM    DATA     BIT       TR1
      000000B8H   SFRSYM    DATA     BIT       PX0
      000000B8H.2 SFRSYM    DATA     BIT       PX1
      0000008FH   SFRSYM    DATA     BYTE      MDH
      000000F8H   SFRSYM    DATA     BIT       PX2
      000000F8H.1 SFRSYM    DATA     BIT       PX3
      000000E3H   SFRSYM    DATA     BYTE      ECNT0
      000000F8H.2 SFRSYM    DATA     BIT       PX4
      000000E4H   SFRSYM    DATA     BYTE      ECNT1
      00000083H   SFRSYM    DATA     BYTE      DPH
      000000F8H.3 SFRSYM    DATA     BIT       PX5
      000000E5H   SFRSYM    DATA     BYTE      ECNT2
      000000F8H.4 SFRSYM    DATA     BIT       PX6
      000000E6H   SFRSYM    DATA     BYTE      ECNT3
      000000F8H   SFRSYM    DATA     BYTE      EIP
      000000E7H   SFRSYM    DATA     BYTE      ECNT4
      00000082H   SFRSYM    DATA     BYTE      DPL
      00000099H   SFRSYM    DATA     BYTE      SBUF0
      00000098H   SFRSYM    DATA     BYTE      SCON0
      00000093H   SFRSYM    DATA     BYTE      DPP
      00000098H.4 SFRSYM    DATA     BIT       REN
      000000D8H.4 SFRSYM    DATA     BIT       INT5F
      000000C8H   SFRSYM    DATA     BYTE      T2CON
      000000D8H.5 SFRSYM    DATA     BIT       INT6F
      000000D8H.6 SFRSYM    DATA     BIT       INT7F
      000000D8H.7 SFRSYM    DATA     BIT       INT8F
      0000008EH   SFRSYM    DATA     BYTE      CKCON
      000000D8H.1 SFRSYM    DATA     BIT       EWT
      00000096H   SFRSYM    DATA     BYTE      SBANK
      000000D0H.5 SFRSYM    DATA     BIT       F0
      000000D0H.1 SFRSYM    DATA     BIT       F1
      000000D0H   SFRSYM    DATA     BYTE      PSW
      00000098H.2 SFRSYM    DATA     BIT       RB08
      000000D8H   SFRSYM    DATA     BYTE      WDCON
      000000D8H   SFRSYM    DATA     BIT       RWT

      010014EDH   BLOCK     CODE     ---       LVL=0
      010014EDH   LINE      CODE     ---       #5
      010014FAH   LINE      CODE     ---       #20
      01001509H   LINE      CODE     ---       #21
      01001509H   LINE      CODE     ---       #22
      01001515H   LINE      CODE     ---       #23
      01001515H   LINE      CODE     ---       #34
      01001515H   LINE      CODE     ---       #35
      01001524H   LINE      CODE     ---       #36
      0100152BH   LINE      CODE     ---       #37
      0100152BH   LINE      CODE     ---       #38
      01001532H   LINE      CODE     ---       #39
      01001536H   LINE      CODE     ---       #40
      01001536H   LINE      CODE     ---       #41
      01001538H   LINE      CODE     ---       #42
      01001538H   LINE      CODE     ---       #43
      0100153EH   LINE      CODE     ---       #44
      01001544H   LINE      CODE     ---       #45
      01001544H   LINE      CODE     ---       #46
      01001544H   LINE      CODE     ---       #48
      0100154BH   LINE      CODE     ---       #49
LX51 LINKER/LOCATER V4.05                                                             04/27/2018  15:47:28  PAGE 37


      0100154BH   LINE      CODE     ---       #61
      ---         BLOCKEND  ---      ---       LVL=0

      ---         MODULE    ---      ---       EXT1INT2
      0100001EH   PUBLIC    CODE     ---       ext1_INT
      00000098H.3 SFRSYM    DATA     BIT       TB08
      000000C8H   SFRSYM    DATA     BIT       T2I0
      000000C3H   SFRSYM    DATA     BYTE      CCH1
      000000C8H.1 SFRSYM    DATA     BIT       T2I1
      00000098H.7 SFRSYM    DATA     BIT       SM00
      000000C5H   SFRSYM    DATA     BYTE      CCH2
      00000098H.6 SFRSYM    DATA     BIT       SM01
      000000C7H   SFRSYM    DATA     BYTE      CCH3
      00000098H.5 SFRSYM    DATA     BIT       SM02
      000000D0H.6 SFRSYM    DATA     BIT       AC
      000000C2H   SFRSYM    DATA     BYTE      CCL1
      000000C4H   SFRSYM    DATA     BYTE      CCL2
      000000A8H.7 SFRSYM    DATA     BIT       EA
      000000C6H   SFRSYM    DATA     BYTE      CCL3
      000000C8H.3 SFRSYM    DATA     BIT       T2R0
      000000C8H.4 SFRSYM    DATA     BIT       T2R1
      000000D9H   SFRSYM    DATA     BYTE      ECNTCON
      00000083H   SFRSYM    DATA     BYTE      DPH0
      000000F3H   SFRSYM    DATA     BYTE      ECNT20
      000000A8H   SFRSYM    DATA     BYTE      IE
      000000F4H   SFRSYM    DATA     BYTE      ECNT21
      000000F5H   SFRSYM    DATA     BYTE      ECNT22
      000000F6H   SFRSYM    DATA     BYTE      ECNT23
      00000082H   SFRSYM    DATA     BYTE      DPL0
      000000F7H   SFRSYM    DATA     BYTE      ECNT24
      000000C8H.6 SFRSYM    DATA     BIT       I3FR
      000000EBH   SFRSYM    DATA     BYTE      TA
      00000098H.4 SFRSYM    DATA     BIT       REN0
      000000C9H   SFRSYM    DATA     BYTE      T2IF
      000000C8H.2 SFRSYM    DATA     BIT       T2CM
      000000A8H.4 SFRSYM    DATA     BIT       ES
      000000B8H   SFRSYM    DATA     BYTE      IP
      000000CEH   SFRSYM    DATA     BYTE      CCEN
      00000098H   SFRSYM    DATA     BIT       RI
      000000D0H.7 SFRSYM    DATA     BIT       CY
      00000098H.1 SFRSYM    DATA     BIT       TI
      00000093H   SFRSYM    DATA     BYTE      DPX0
      000000B8H.4 SFRSYM    DATA     BIT       PS
      00000081H   SFRSYM    DATA     BYTE      SP
      000000D0H.2 SFRSYM    DATA     BIT       OV
      000000E8H.4 SFRSYM    DATA     BIT       EWDI
      000000C8H.7 SFRSYM    DATA     BIT       T2PS
      000000D8H.3 SFRSYM    DATA     BIT       WDIF
      000000CBH   SFRSYM    DATA     BYTE      RCRH
      00000099H   SFRSYM    DATA     BYTE      SBUF
      00000087H   SFRSYM    DATA     BYTE      PCON
      0000009EH   SFRSYM    DATA     BYTE      IDXL
      000000CAH   SFRSYM    DATA     BYTE      RCRL
      00000098H   SFRSYM    DATA     BYTE      SCON
      000000F8H.5 SFRSYM    DATA     BIT       PWDI
      00000089H   SFRSYM    DATA     BYTE      TMOD
      00000088H   SFRSYM    DATA     BYTE      TCON
      00000088H.1 SFRSYM    DATA     BIT       IE0
      00000088H.3 SFRSYM    DATA     BIT       IE1
      000000DAH   SFRSYM    DATA     BYTE      ECNTCON2
      000000EAH   SFRSYM    DATA     BYTE      MXAX
      000000F0H   SFRSYM    DATA     BYTE      B
      000000D8H.2 SFRSYM    DATA     BIT       WTRF
      000000E0H   SFRSYM    DATA     BYTE      ACC
      000000A8H.4 SFRSYM    DATA     BIT       ES0
LX51 LINKER/LOCATER V4.05                                                             04/27/2018  15:47:28  PAGE 38


      000000A8H.1 SFRSYM    DATA     BIT       ET0
      000000A8H.3 SFRSYM    DATA     BIT       ET1
      00000088H.5 SFRSYM    DATA     BIT       TF0
      00000098H   SFRSYM    DATA     BIT       RI0
      00000088H.7 SFRSYM    DATA     BIT       TF1
      00000098H.2 SFRSYM    DATA     BIT       RB8
      0000008CH   SFRSYM    DATA     BYTE      TH0
      000000A8H   SFRSYM    DATA     BIT       EX0
      00000098H.1 SFRSYM    DATA     BIT       TI0
      00000088H   SFRSYM    DATA     BIT       IT0
      0000008DH   SFRSYM    DATA     BYTE      TH1
      000000A8H.2 SFRSYM    DATA     BIT       EX1
      00000098H.3 SFRSYM    DATA     BIT       TB8
      00000088H.2 SFRSYM    DATA     BIT       IT1
      000000CDH   SFRSYM    DATA     BYTE      TH2
      000000E8H   SFRSYM    DATA     BIT       EX2
      000000D0H   SFRSYM    DATA     BIT       P
      000000E8H.1 SFRSYM    DATA     BIT       EX3
      00000098H.7 SFRSYM    DATA     BIT       SM0
      0000008AH   SFRSYM    DATA     BYTE      TL0
      000000E8H.2 SFRSYM    DATA     BIT       EX4
      00000098H.6 SFRSYM    DATA     BIT       SM1
      0000008BH   SFRSYM    DATA     BYTE      TL1
      000000E8H.3 SFRSYM    DATA     BIT       EX5
      00000098H.5 SFRSYM    DATA     BIT       SM2
      000000CCH   SFRSYM    DATA     BYTE      TL2
      000000B8H.4 SFRSYM    DATA     BIT       PS0
      000000E8H   SFRSYM    DATA     BYTE      EIE
      00000092H   SFRSYM    DATA     BYTE      WTST
      000000B8H.1 SFRSYM    DATA     BIT       PT0
      00000091H   SFRSYM    DATA     BYTE      EIF
      000000D0H.3 SFRSYM    DATA     BIT       RS0
      000000B8H.3 SFRSYM    DATA     BIT       PT1
      000000D0H.4 SFRSYM    DATA     BIT       RS1
      00000088H.4 SFRSYM    DATA     BIT       TR0
      00000088H.6 SFRSYM    DATA     BIT       TR1
      000000B8H   SFRSYM    DATA     BIT       PX0
      000000B8H.2 SFRSYM    DATA     BIT       PX1
      0000008FH   SFRSYM    DATA     BYTE      MDH
      000000F8H   SFRSYM    DATA     BIT       PX2
      000000F8H.1 SFRSYM    DATA     BIT       PX3
      000000E3H   SFRSYM    DATA     BYTE      ECNT0
      000000F8H.2 SFRSYM    DATA     BIT       PX4
      000000E4H   SFRSYM    DATA     BYTE      ECNT1
      00000083H   SFRSYM    DATA     BYTE      DPH
      000000F8H.3 SFRSYM    DATA     BIT       PX5
      000000E5H   SFRSYM    DATA     BYTE      ECNT2
      000000F8H.4 SFRSYM    DATA     BIT       PX6
      000000E6H   SFRSYM    DATA     BYTE      ECNT3
      000000F8H   SFRSYM    DATA     BYTE      EIP
      000000E7H   SFRSYM    DATA     BYTE      ECNT4
      00000082H   SFRSYM    DATA     BYTE      DPL
      00000099H   SFRSYM    DATA     BYTE      SBUF0
      00000098H   SFRSYM    DATA     BYTE      SCON0
      00000093H   SFRSYM    DATA     BYTE      DPP
      00000098H.4 SFRSYM    DATA     BIT       REN
      000000D8H.4 SFRSYM    DATA     BIT       INT5F
      000000C8H   SFRSYM    DATA     BYTE      T2CON
      000000D8H.5 SFRSYM    DATA     BIT       INT6F
      000000D8H.6 SFRSYM    DATA     BIT       INT7F
      000000D8H.7 SFRSYM    DATA     BIT       INT8F
      0000008EH   SFRSYM    DATA     BYTE      CKCON
      000000D8H.1 SFRSYM    DATA     BIT       EWT
      00000096H   SFRSYM    DATA     BYTE      SBANK
      000000D0H.5 SFRSYM    DATA     BIT       F0
LX51 LINKER/LOCATER V4.05                                                             04/27/2018  15:47:28  PAGE 39


      000000D0H.1 SFRSYM    DATA     BIT       F1
      000000D0H   SFRSYM    DATA     BYTE      PSW
      00000098H.2 SFRSYM    DATA     BIT       RB08
      000000D8H   SFRSYM    DATA     BYTE      WDCON
      000000D8H   SFRSYM    DATA     BIT       RWT

      0100001EH   BLOCK     CODE     ---       LVL=0
      01000031H   BLOCK     CODE     NEAR LAB  LVL=1
      01000061H   SYMBOL    CODE     ---       CC_SAMPLE
      ---         BLOCKEND  ---      ---       LVL=1
      0100001EH   LINE      CODE     ---       #15
      01000031H   LINE      CODE     ---       #50
      01000031H   LINE      CODE     ---       #55
      0100003CH   LINE      CODE     ---       #60
      0100003CH   LINE      CODE     ---       #73
      01000043H   LINE      CODE     ---       #199
      0100004AH   LINE      CODE     ---       #200
      0100004DH   LINE      CODE     ---       #201
      0100004FH   LINE      CODE     ---       #202
      01000051H   LINE      CODE     ---       #203
      01000053H   LINE      CODE     ---       #204
      01000055H   LINE      CODE     ---       #205
      01000057H   LINE      CODE     ---       #206
      0100005BH   LINE      CODE     ---       #207
      0100005FH   LINE      CODE     ---       #208
      01000061H   LINE      CODE     ---       #581
      01000061H   LINE      CODE     ---       #582
      01000068H   LINE      CODE     ---       #583
      01000068H   LINE      CODE     ---       #584
      0100006CH   LINE      CODE     ---       #585
      01000073H   LINE      CODE     ---       #586
      01000077H   LINE      CODE     ---       #587
      0100007DH   LINE      CODE     ---       #588
      0100007DH   LINE      CODE     ---       #597
      01000084H   LINE      CODE     ---       #598
      0100008AH   LINE      CODE     ---       #599
      01000091H   LINE      CODE     ---       #601
      01000091H   LINE      CODE     ---       #602
      01000098H   LINE      CODE     ---       #603
      0100009CH   LINE      CODE     ---       #604
      010000A3H   LINE      CODE     ---       #605
      010000A3H   LINE      CODE     ---       #606
      010000A9H   LINE      CODE     ---       #607
      010000ABH   LINE      CODE     ---       #608
      010000B1H   LINE      CODE     ---       #609
      010000B8H   LINE      CODE     ---       #610
      010000C0H   LINE      CODE     ---       #611
      010000C0H   LINE      CODE     ---       #613
      010000C0H   LINE      CODE     ---       #615
      010000C0H   LINE      CODE     ---       #620
      010000C0H   LINE      CODE     ---       #621
      010000C7H   LINE      CODE     ---       #622
      010000CBH   LINE      CODE     ---       #623
      010000D2H   LINE      CODE     ---       #624
      010000D2H   LINE      CODE     ---       #625
      010000D8H   LINE      CODE     ---       #626
      010000DAH   LINE      CODE     ---       #627
      010000E0H   LINE      CODE     ---       #628
      010000E7H   LINE      CODE     ---       #629
      010000EFH   LINE      CODE     ---       #630
      010000EFH   LINE      CODE     ---       #634
      010000EFH   LINE      CODE     ---       #635
      010000F6H   LINE      CODE     ---       #636
      010000FAH   LINE      CODE     ---       #637
      01000101H   LINE      CODE     ---       #638
LX51 LINKER/LOCATER V4.05                                                             04/27/2018  15:47:28  PAGE 40


      01000101H   LINE      CODE     ---       #639
      01000107H   LINE      CODE     ---       #640
      01000109H   LINE      CODE     ---       #641
      0100010FH   LINE      CODE     ---       #642
      01000116H   LINE      CODE     ---       #643
      0100011EH   LINE      CODE     ---       #644
      0100011EH   LINE      CODE     ---       #646
      0100011EH   LINE      CODE     ---       #647
      01000125H   LINE      CODE     ---       #648
      01000129H   LINE      CODE     ---       #649
      01000130H   LINE      CODE     ---       #650
      01000130H   LINE      CODE     ---       #651
      01000136H   LINE      CODE     ---       #652
      01000138H   LINE      CODE     ---       #653
      0100013EH   LINE      CODE     ---       #654
      01000145H   LINE      CODE     ---       #655
      0100014DH   LINE      CODE     ---       #656
      0100014DH   LINE      CODE     ---       #658
      01000153H   LINE      CODE     ---       #659
      0100016CH   LINE      CODE     ---       #660
      0100016CH   LINE      CODE     ---       #661
      01000172H   LINE      CODE     ---       #662
      0100017BH   LINE      CODE     ---       #664
      0100017BH   LINE      CODE     ---       #670
      01000185H   LINE      CODE     ---       #671
      01000185H   LINE      CODE     ---       #672
      0100018CH   LINE      CODE     ---       #680
      01000196H   LINE      CODE     ---       #681
      01000196H   LINE      CODE     ---       #682
      0100019DH   LINE      CODE     ---       #685
      010001A7H   LINE      CODE     ---       #686
      010001A7H   LINE      CODE     ---       #687
      010001AEH   LINE      CODE     ---       #689
      010001B6H   LINE      CODE     ---       #690
      010001B6H   LINE      CODE     ---       #691
      010001BFH   LINE      CODE     ---       #692
      010001BFH   LINE      CODE     ---       #693
      010001C5H   LINE      CODE     ---       #694
      010001CAH   LINE      CODE     ---       #703
      010001CAH   LINE      CODE     ---       #704
      010001CDH   LINE      CODE     ---       #705
      010001D9H   LINE      CODE     ---       #706
      010001D9H   LINE      CODE     ---       #707
      010001DFH   LINE      CODE     ---       #709
      010001E3H   LINE      CODE     ---       #710
      010001E3H   LINE      CODE     ---       #711
      010001E3H   LINE      CODE     ---       #712
      010001E3H   LINE      CODE     ---       #713
      010001E3H   LINE      CODE     ---       #714
      010001E3H   LINE      CODE     ---       #715
      010001E3H   LINE      CODE     ---       #716
      010001E6H   LINE      CODE     ---       #717
      010001F0H   LINE      CODE     ---       #718
      010001F0H   LINE      CODE     ---       #719
      010001F9H   LINE      CODE     ---       #720
      010001F9H   LINE      CODE     ---       #721
      010001FFH   LINE      CODE     ---       #722
      01000204H   LINE      CODE     ---       #731
      01000204H   LINE      CODE     ---       #732
      01000207H   LINE      CODE     ---       #733
      01000213H   LINE      CODE     ---       #734
      01000213H   LINE      CODE     ---       #735
      01000219H   LINE      CODE     ---       #737
      0100021EH   LINE      CODE     ---       #738
      0100021EH   LINE      CODE     ---       #739
LX51 LINKER/LOCATER V4.05                                                             04/27/2018  15:47:28  PAGE 41


      0100021EH   LINE      CODE     ---       #740
      0100021EH   LINE      CODE     ---       #741
      0100021EH   LINE      CODE     ---       #742
      0100021EH   LINE      CODE     ---       #743
      0100021EH   LINE      CODE     ---       #744
      01000221H   LINE      CODE     ---       #745
      0100022EH   LINE      CODE     ---       #746
      0100022EH   LINE      CODE     ---       #747
      01000237H   LINE      CODE     ---       #748
      01000237H   LINE      CODE     ---       #749
      0100023DH   LINE      CODE     ---       #750
      01000242H   LINE      CODE     ---       #759
      01000242H   LINE      CODE     ---       #760
      01000245H   LINE      CODE     ---       #761
      01000251H   LINE      CODE     ---       #762
      01000251H   LINE      CODE     ---       #763
      01000257H   LINE      CODE     ---       #765
      0100025CH   LINE      CODE     ---       #766
      0100025CH   LINE      CODE     ---       #767
      0100025CH   LINE      CODE     ---       #768
      0100025CH   LINE      CODE     ---       #769
      0100025CH   LINE      CODE     ---       #770
      0100025CH   LINE      CODE     ---       #771
      0100025CH   LINE      CODE     ---       #772
      0100025CH   LINE      CODE     ---       #773
      0100025FH   LINE      CODE     ---       #774
      01000269H   LINE      CODE     ---       #775
      01000269H   LINE      CODE     ---       #776
      01000270H   LINE      CODE     ---       #777
      01000278H   LINE      CODE     ---       #778
      01000278H   LINE      CODE     ---       #779
      01000281H   LINE      CODE     ---       #780
      01000281H   LINE      CODE     ---       #781
      01000287H   LINE      CODE     ---       #782
      0100028CH   LINE      CODE     ---       #791
      0100028CH   LINE      CODE     ---       #792
      0100028FH   LINE      CODE     ---       #793
      0100029BH   LINE      CODE     ---       #794
      0100029BH   LINE      CODE     ---       #795
      010002A1H   LINE      CODE     ---       #797
      010002A6H   LINE      CODE     ---       #798
      010002A6H   LINE      CODE     ---       #799
      010002A6H   LINE      CODE     ---       #800
      010002A6H   LINE      CODE     ---       #801
      010002A6H   LINE      CODE     ---       #802
      010002A6H   LINE      CODE     ---       #803
      010002A6H   LINE      CODE     ---       #804
      010002A9H   LINE      CODE     ---       #805
      010002B3H   LINE      CODE     ---       #806
      010002B3H   LINE      CODE     ---       #807
      010002BCH   LINE      CODE     ---       #808
      010002BCH   LINE      CODE     ---       #809
      010002C2H   LINE      CODE     ---       #810
      010002C7H   LINE      CODE     ---       #819
      010002C7H   LINE      CODE     ---       #820
      010002CAH   LINE      CODE     ---       #821
      010002D6H   LINE      CODE     ---       #822
      010002D6H   LINE      CODE     ---       #823
      010002DCH   LINE      CODE     ---       #825
      010002E0H   LINE      CODE     ---       #826
      010002E0H   LINE      CODE     ---       #827
      010002E0H   LINE      CODE     ---       #828
      010002E0H   LINE      CODE     ---       #829
      010002E0H   LINE      CODE     ---       #830
      010002E0H   LINE      CODE     ---       #831
LX51 LINKER/LOCATER V4.05                                                             04/27/2018  15:47:28  PAGE 42


      010002E0H   LINE      CODE     ---       #832
      010002E3H   LINE      CODE     ---       #833
      010002F0H   LINE      CODE     ---       #834
      010002F0H   LINE      CODE     ---       #835
      010002F9H   LINE      CODE     ---       #836
      010002F9H   LINE      CODE     ---       #837
      010002FFH   LINE      CODE     ---       #838
      01000304H   LINE      CODE     ---       #847
      01000304H   LINE      CODE     ---       #848
      01000307H   LINE      CODE     ---       #849
      01000313H   LINE      CODE     ---       #850
      01000313H   LINE      CODE     ---       #851
      01000319H   LINE      CODE     ---       #853
      0100031CH   LINE      CODE     ---       #854
      0100031CH   LINE      CODE     ---       #855
      0100031CH   LINE      CODE     ---       #856
      0100031CH   LINE      CODE     ---       #857
      0100031CH   LINE      CODE     ---       #858
      0100031CH   LINE      CODE     ---       #859
      0100031CH   LINE      CODE     ---       #860
      0100031CH   LINE      CODE     ---       #861
      0100031FH   LINE      CODE     ---       #863
      0100031FH   LINE      CODE     ---       #864
      01000326H   LINE      CODE     ---       #867
      01000342H   LINE      CODE     ---       #868
      01000342H   LINE      CODE     ---       #869
      01000342H   LINE      CODE     ---       #870
      0100034BH   LINE      CODE     ---       #871
      0100034BH   LINE      CODE     ---       #872
      01000351H   LINE      CODE     ---       #873
      01000356H   LINE      CODE     ---       #875
      01000356H   LINE      CODE     ---       #876
      01000356H   LINE      CODE     ---       #877
      01000356H   LINE      CODE     ---       #878
      01000356H   LINE      CODE     ---       #879
      01000356H   LINE      CODE     ---       #880
      01000356H   LINE      CODE     ---       #881
      01000356H   LINE      CODE     ---       #882
      01000359H   LINE      CODE     ---       #884
      01000375H   LINE      CODE     ---       #885
      01000375H   LINE      CODE     ---       #886
      01000375H   LINE      CODE     ---       #887
      0100037EH   LINE      CODE     ---       #888
      0100037EH   LINE      CODE     ---       #889
      01000384H   LINE      CODE     ---       #890
      01000389H   LINE      CODE     ---       #892
      01000389H   LINE      CODE     ---       #893
      01000389H   LINE      CODE     ---       #894
      01000389H   LINE      CODE     ---       #895
      01000389H   LINE      CODE     ---       #896
      01000389H   LINE      CODE     ---       #897
      01000389H   LINE      CODE     ---       #898
      01000389H   LINE      CODE     ---       #899
      0100038CH   LINE      CODE     ---       #901
      0100038CH   LINE      CODE     ---       #902
      0100039BH   LINE      CODE     ---       #903
      0100039BH   LINE      CODE     ---       #904
      010003A4H   LINE      CODE     ---       #905
      010003A4H   LINE      CODE     ---       #906
      010003AAH   LINE      CODE     ---       #907
      010003AFH   LINE      CODE     ---       #909
      010003AFH   LINE      CODE     ---       #910
      010003AFH   LINE      CODE     ---       #911
      010003AFH   LINE      CODE     ---       #912
      010003AFH   LINE      CODE     ---       #913
LX51 LINKER/LOCATER V4.05                                                             04/27/2018  15:47:28  PAGE 43


      010003AFH   LINE      CODE     ---       #914
      010003B2H   LINE      CODE     ---       #915
      010003BEH   LINE      CODE     ---       #916
      010003BEH   LINE      CODE     ---       #917
      010003C4H   LINE      CODE     ---       #918
      010003C9H   LINE      CODE     ---       #920
      010003C9H   LINE      CODE     ---       #921
      010003C9H   LINE      CODE     ---       #922
      010003C9H   LINE      CODE     ---       #923
      010003C9H   LINE      CODE     ---       #924
      010003C9H   LINE      CODE     ---       #925
      010003C9H   LINE      CODE     ---       #926
      010003CCH   LINE      CODE     ---       #927
      010003D9H   LINE      CODE     ---       #928
      010003D9H   LINE      CODE     ---       #929
      010003E2H   LINE      CODE     ---       #930
      010003E2H   LINE      CODE     ---       #931
      010003E8H   LINE      CODE     ---       #932
      010003EDH   LINE      CODE     ---       #934
      010003EDH   LINE      CODE     ---       #935
      010003EDH   LINE      CODE     ---       #936
      010003EDH   LINE      CODE     ---       #937
      010003EDH   LINE      CODE     ---       #938
      010003EDH   LINE      CODE     ---       #939
      010003F0H   LINE      CODE     ---       #940
      010003FCH   LINE      CODE     ---       #941
      010003FCH   LINE      CODE     ---       #942
      01000402H   LINE      CODE     ---       #943
      01000407H   LINE      CODE     ---       #945
      01000407H   LINE      CODE     ---       #946
      01000407H   LINE      CODE     ---       #947
      01000407H   LINE      CODE     ---       #948
      01000407H   LINE      CODE     ---       #949
      01000407H   LINE      CODE     ---       #950
      01000407H   LINE      CODE     ---       #951
      01000407H   LINE      CODE     ---       #952
      01000407H   LINE      CODE     ---       #953
      01000407H   LINE      CODE     ---       #954
      0100040AH   LINE      CODE     ---       #955
      01000414H   LINE      CODE     ---       #956
      01000414H   LINE      CODE     ---       #957
      0100041BH   LINE      CODE     ---       #960
      01000427H   LINE      CODE     ---       #961
      01000427H   LINE      CODE     ---       #962
      0100042EH   LINE      CODE     ---       #964
      01000434H   LINE      CODE     ---       #965
      01000443H   LINE      CODE     ---       #966
      01000443H   LINE      CODE     ---       #967
      01000449H   LINE      CODE     ---       #969
      01000452H   LINE      CODE     ---       #970
      01000454H   LINE      CODE     ---       #971
      01000463H   LINE      CODE     ---       #972
      01000463H   LINE      CODE     ---       #973
      01000469H   LINE      CODE     ---       #975
      01000472H   LINE      CODE     ---       #976
      01000474H   LINE      CODE     ---       #977
      01000483H   LINE      CODE     ---       #978
      01000483H   LINE      CODE     ---       #979
      01000489H   LINE      CODE     ---       #981
      01000492H   LINE      CODE     ---       #982
      01000494H   LINE      CODE     ---       #983
      0100049DH   LINE      CODE     ---       #984
      0100049DH   LINE      CODE     ---       #985
      0100049DH   LINE      CODE     ---       #986
      0100049DH   LINE      CODE     ---       #988
LX51 LINKER/LOCATER V4.05                                                             04/27/2018  15:47:28  PAGE 44


      010004A0H   LINE      CODE     ---       #989
      010004A0H   LINE      CODE     ---       #990
      010004A7H   LINE      CODE     ---       #991
      010004AEH   LINE      CODE     ---       #992
      010004B2H   LINE      CODE     ---       #993
      010004B8H   LINE      CODE     ---       #994
      010004B8H   LINE      CODE     ---       #995
      010004C4H   LINE      CODE     ---       #996
      010004C4H   LINE      CODE     ---       #997
      010004CBH   LINE      CODE     ---       #999
      010004D1H   LINE      CODE     ---       #1000
      010004E0H   LINE      CODE     ---       #1001
      010004E0H   LINE      CODE     ---       #1002
      010004E6H   LINE      CODE     ---       #1004
      010004EFH   LINE      CODE     ---       #1005
      010004F1H   LINE      CODE     ---       #1006
      01000500H   LINE      CODE     ---       #1007
      01000500H   LINE      CODE     ---       #1008
      01000506H   LINE      CODE     ---       #1010
      0100050FH   LINE      CODE     ---       #1011
      01000511H   LINE      CODE     ---       #1012
      01000520H   LINE      CODE     ---       #1013
      01000520H   LINE      CODE     ---       #1014
      01000526H   LINE      CODE     ---       #1016
      0100052FH   LINE      CODE     ---       #1017
      01000531H   LINE      CODE     ---       #1018
      0100053AH   LINE      CODE     ---       #1019
      0100053AH   LINE      CODE     ---       #1020
      0100053AH   LINE      CODE     ---       #1021
      0100053AH   LINE      CODE     ---       #1023
      0100053DH   LINE      CODE     ---       #1024
      0100053DH   LINE      CODE     ---       #1025
      01000544H   LINE      CODE     ---       #1026
      0100054BH   LINE      CODE     ---       #1027
      0100054FH   LINE      CODE     ---       #1028
      01000555H   LINE      CODE     ---       #1029
      01000555H   LINE      CODE     ---       #1030
      0100056CH   LINE      CODE     ---       #1031
      0100056CH   LINE      CODE     ---       #1032
      01000573H   LINE      CODE     ---       #1034
      01000581H   LINE      CODE     ---       #1035
      01000581H   LINE      CODE     ---       #1036
      01000588H   LINE      CODE     ---       #1038
      01000591H   LINE      CODE     ---       #1039
      01000593H   LINE      CODE     ---       #1040
      010005A2H   LINE      CODE     ---       #1041
      010005A2H   LINE      CODE     ---       #1042
      010005A9H   LINE      CODE     ---       #1044
      010005B2H   LINE      CODE     ---       #1045
      010005B4H   LINE      CODE     ---       #1046
      010005C3H   LINE      CODE     ---       #1047
      010005C3H   LINE      CODE     ---       #1048
      010005CAH   LINE      CODE     ---       #1050
      010005D3H   LINE      CODE     ---       #1051
      010005D3H   LINE      CODE     ---       #1053
      010005E2H   LINE      CODE     ---       #1054
      010005E2H   LINE      CODE     ---       #1055
      010005E9H   LINE      CODE     ---       #1057
      010005F2H   LINE      CODE     ---       #1058
      010005F5H   LINE      CODE     ---       #1059
      01000604H   LINE      CODE     ---       #1060
      01000604H   LINE      CODE     ---       #1061
      0100060BH   LINE      CODE     ---       #1063
      01000614H   LINE      CODE     ---       #1064
      01000617H   LINE      CODE     ---       #1065
LX51 LINKER/LOCATER V4.05                                                             04/27/2018  15:47:28  PAGE 45


      0100062CH   LINE      CODE     ---       #1066
      0100062CH   LINE      CODE     ---       #1067
      01000633H   LINE      CODE     ---       #1069
      0100063CH   LINE      CODE     ---       #1070
      0100063CH   LINE      CODE     ---       #1071
      0100063CH   LINE      CODE     ---       #1072
      0100063CH   LINE      CODE     ---       #1073
      0100063CH   LINE      CODE     ---       #1074
      0100063CH   LINE      CODE     ---       #1075
      0100063CH   LINE      CODE     ---       #1076
      0100063CH   LINE      CODE     ---       #1086
      0100063CH   LINE      CODE     ---       #1088
      0100063FH   LINE      CODE     ---       #1090
      0100063FH   LINE      CODE     ---       #1091
      01000646H   LINE      CODE     ---       #1093
      01000653H   LINE      CODE     ---       #1094
      01000653H   LINE      CODE     ---       #1095
      0100065AH   LINE      CODE     ---       #1098
      01000664H   LINE      CODE     ---       #1099
      01000664H   LINE      CODE     ---       #1100
      0100066BH   LINE      CODE     ---       #1102
      01000673H   LINE      CODE     ---       #1103
      01000673H   LINE      CODE     ---       #1104
      0100067CH   LINE      CODE     ---       #1105
      0100067CH   LINE      CODE     ---       #1106
      01000682H   LINE      CODE     ---       #1107
      01000687H   LINE      CODE     ---       #1116
      01000687H   LINE      CODE     ---       #1117
      01000689H   LINE      CODE     ---       #1118
      01000695H   LINE      CODE     ---       #1119
      01000695H   LINE      CODE     ---       #1120
      0100069BH   LINE      CODE     ---       #1122
      010006A0H   LINE      CODE     ---       #1123
      010006A0H   LINE      CODE     ---       #1124
      010006A0H   LINE      CODE     ---       #1125
      010006A0H   LINE      CODE     ---       #1126
      010006A0H   LINE      CODE     ---       #1127
      010006A0H   LINE      CODE     ---       #1128
      010006A0H   LINE      CODE     ---       #1129
      010006A2H   LINE      CODE     ---       #1130
      010006ACH   LINE      CODE     ---       #1131
      010006ACH   LINE      CODE     ---       #1132
      010006B5H   LINE      CODE     ---       #1133
      010006B5H   LINE      CODE     ---       #1134
      010006BBH   LINE      CODE     ---       #1135
      010006C0H   LINE      CODE     ---       #1144
      010006C0H   LINE      CODE     ---       #1145
      010006C2H   LINE      CODE     ---       #1146
      010006CEH   LINE      CODE     ---       #1147
      010006CEH   LINE      CODE     ---       #1148
      010006D4H   LINE      CODE     ---       #1150
      010006D9H   LINE      CODE     ---       #1151
      010006D9H   LINE      CODE     ---       #1152
      010006D9H   LINE      CODE     ---       #1153
      010006D9H   LINE      CODE     ---       #1154
      010006D9H   LINE      CODE     ---       #1155
      010006D9H   LINE      CODE     ---       #1156
      010006D9H   LINE      CODE     ---       #1157
      010006DBH   LINE      CODE     ---       #1158
      010006E8H   LINE      CODE     ---       #1159
      010006E8H   LINE      CODE     ---       #1160
      010006F1H   LINE      CODE     ---       #1161
      010006F1H   LINE      CODE     ---       #1162
      010006F7H   LINE      CODE     ---       #1163
      010006FDH   LINE      CODE     ---       #1172
LX51 LINKER/LOCATER V4.05                                                             04/27/2018  15:47:28  PAGE 46


      01000703H   LINE      CODE     ---       #1173
      01000706H   LINE      CODE     ---       #1174
      01000712H   LINE      CODE     ---       #1175
      01000712H   LINE      CODE     ---       #1176
      01000718H   LINE      CODE     ---       #1178
      0100071EH   LINE      CODE     ---       #1179
      01000727H   LINE      CODE     ---       #1180
      0100072EH   LINE      CODE     ---       #1181
      01000735H   LINE      CODE     ---       #1182
      01000739H   LINE      CODE     ---       #1183
      0100073FH   LINE      CODE     ---       #1184
      0100073FH   LINE      CODE     ---       #1185
      0100073FH   LINE      CODE     ---       #1186
      01000742H   LINE      CODE     ---       #1187
      0100074CH   LINE      CODE     ---       #1188
      0100074CH   LINE      CODE     ---       #1189
      01000753H   LINE      CODE     ---       #1191
      0100075BH   LINE      CODE     ---       #1192
      0100075BH   LINE      CODE     ---       #1193
      01000764H   LINE      CODE     ---       #1194
      01000764H   LINE      CODE     ---       #1195
      0100076AH   LINE      CODE     ---       #1196
      0100076FH   LINE      CODE     ---       #1205
      0100076FH   LINE      CODE     ---       #1206
      01000771H   LINE      CODE     ---       #1207
      0100077DH   LINE      CODE     ---       #1208
      0100077DH   LINE      CODE     ---       #1209
      01000783H   LINE      CODE     ---       #1211
      01000788H   LINE      CODE     ---       #1212
      01000788H   LINE      CODE     ---       #1213
      01000788H   LINE      CODE     ---       #1214
      01000788H   LINE      CODE     ---       #1215
      01000788H   LINE      CODE     ---       #1216
      01000788H   LINE      CODE     ---       #1217
      01000788H   LINE      CODE     ---       #1218
      0100078AH   LINE      CODE     ---       #1219
      01000794H   LINE      CODE     ---       #1220
      01000794H   LINE      CODE     ---       #1221
      0100079DH   LINE      CODE     ---       #1222
      0100079DH   LINE      CODE     ---       #1223
      010007A3H   LINE      CODE     ---       #1224
      010007A8H   LINE      CODE     ---       #1233
      010007A8H   LINE      CODE     ---       #1234
      010007AAH   LINE      CODE     ---       #1235
      010007B6H   LINE      CODE     ---       #1236
      010007B6H   LINE      CODE     ---       #1237
      010007BCH   LINE      CODE     ---       #1239
      010007C1H   LINE      CODE     ---       #1240
      010007C1H   LINE      CODE     ---       #1241
      010007C1H   LINE      CODE     ---       #1242
      010007C1H   LINE      CODE     ---       #1243
      010007C1H   LINE      CODE     ---       #1244
      010007C1H   LINE      CODE     ---       #1245
      010007C1H   LINE      CODE     ---       #1246
      010007C3H   LINE      CODE     ---       #1247
      010007D0H   LINE      CODE     ---       #1248
      010007D0H   LINE      CODE     ---       #1249
      010007D9H   LINE      CODE     ---       #1250
      010007D9H   LINE      CODE     ---       #1251
      010007DFH   LINE      CODE     ---       #1252
      010007E5H   LINE      CODE     ---       #1261
      010007EBH   LINE      CODE     ---       #1262
      010007EEH   LINE      CODE     ---       #1263
      010007FAH   LINE      CODE     ---       #1264
      010007FAH   LINE      CODE     ---       #1265
LX51 LINKER/LOCATER V4.05                                                             04/27/2018  15:47:28  PAGE 47


      01000800H   LINE      CODE     ---       #1267
      01000806H   LINE      CODE     ---       #1268
      0100080FH   LINE      CODE     ---       #1269
      01000816H   LINE      CODE     ---       #1270
      0100081DH   LINE      CODE     ---       #1271
      01000821H   LINE      CODE     ---       #1272
      01000827H   LINE      CODE     ---       #1273
      01000827H   LINE      CODE     ---       #1274
      01000827H   LINE      CODE     ---       #1275
      0100082AH   LINE      CODE     ---       #1277
      0100082AH   LINE      CODE     ---       #1278
      01000831H   LINE      CODE     ---       #1280
      0100084DH   LINE      CODE     ---       #1281
      0100084DH   LINE      CODE     ---       #1282
      0100084DH   LINE      CODE     ---       #1283
      01000856H   LINE      CODE     ---       #1284
      01000856H   LINE      CODE     ---       #1285
      0100085CH   LINE      CODE     ---       #1286
      01000862H   LINE      CODE     ---       #1288
      0100086BH   LINE      CODE     ---       #1289
      01000872H   LINE      CODE     ---       #1290
      01000879H   LINE      CODE     ---       #1291
      0100087DH   LINE      CODE     ---       #1292
      01000883H   LINE      CODE     ---       #1293
      01000883H   LINE      CODE     ---       #1294
      01000883H   LINE      CODE     ---       #1295
      01000886H   LINE      CODE     ---       #1296
      010008A2H   LINE      CODE     ---       #1297
      010008A2H   LINE      CODE     ---       #1298
      010008A2H   LINE      CODE     ---       #1299
      010008ABH   LINE      CODE     ---       #1300
      010008ABH   LINE      CODE     ---       #1301
      010008B1H   LINE      CODE     ---       #1302
      010008B7H   LINE      CODE     ---       #1304
      010008C0H   LINE      CODE     ---       #1305
      010008C7H   LINE      CODE     ---       #1306
      010008CEH   LINE      CODE     ---       #1307
      010008D2H   LINE      CODE     ---       #1308
      010008D8H   LINE      CODE     ---       #1309
      010008D8H   LINE      CODE     ---       #1310
      010008D8H   LINE      CODE     ---       #1311
      010008DBH   LINE      CODE     ---       #1313
      010008DBH   LINE      CODE     ---       #1314
      010008EAH   LINE      CODE     ---       #1315
      010008EAH   LINE      CODE     ---       #1316
      010008F3H   LINE      CODE     ---       #1317
      010008F3H   LINE      CODE     ---       #1318
      010008F9H   LINE      CODE     ---       #1319
      010008FEH   LINE      CODE     ---       #1321
      010008FEH   LINE      CODE     ---       #1322
      010008FEH   LINE      CODE     ---       #1323
      010008FEH   LINE      CODE     ---       #1324
      010008FEH   LINE      CODE     ---       #1325
      010008FEH   LINE      CODE     ---       #1326
      01000900H   LINE      CODE     ---       #1327
      0100090CH   LINE      CODE     ---       #1328
      0100090CH   LINE      CODE     ---       #1329
      01000912H   LINE      CODE     ---       #1330
      01000917H   LINE      CODE     ---       #1332
      01000917H   LINE      CODE     ---       #1333
      01000917H   LINE      CODE     ---       #1334
      01000917H   LINE      CODE     ---       #1335
      01000917H   LINE      CODE     ---       #1336
      01000917H   LINE      CODE     ---       #1337
      01000917H   LINE      CODE     ---       #1338
LX51 LINKER/LOCATER V4.05                                                             04/27/2018  15:47:28  PAGE 48


      01000919H   LINE      CODE     ---       #1339
      01000926H   LINE      CODE     ---       #1340
      01000926H   LINE      CODE     ---       #1341
      0100092FH   LINE      CODE     ---       #1342
      0100092FH   LINE      CODE     ---       #1343
      01000935H   LINE      CODE     ---       #1344
      0100093BH   LINE      CODE     ---       #1346
      01000944H   LINE      CODE     ---       #1347
      0100094BH   LINE      CODE     ---       #1348
      01000952H   LINE      CODE     ---       #1349
      01000956H   LINE      CODE     ---       #1350
      0100095CH   LINE      CODE     ---       #1351
      0100095FH   LINE      CODE     ---       #1352
      0100096BH   LINE      CODE     ---       #1353
      0100096BH   LINE      CODE     ---       #1354
      01000971H   LINE      CODE     ---       #1355
      01000977H   LINE      CODE     ---       #1357
      01000980H   LINE      CODE     ---       #1358
      01000987H   LINE      CODE     ---       #1359
      0100098EH   LINE      CODE     ---       #1360
      01000992H   LINE      CODE     ---       #1361
      01000998H   LINE      CODE     ---       #1362
      01000998H   LINE      CODE     ---       #1363
      01000998H   LINE      CODE     ---       #1364
      01000998H   LINE      CODE     ---       #1365
      01000998H   LINE      CODE     ---       #1366
      0100099BH   LINE      CODE     ---       #1367
      010009A8H   LINE      CODE     ---       #1368
      010009A8H   LINE      CODE     ---       #1369
      010009AFH   LINE      CODE     ---       #1372
      010009BBH   LINE      CODE     ---       #1373
      010009BBH   LINE      CODE     ---       #1375
      010009C2H   LINE      CODE     ---       #1377
      010009D1H   LINE      CODE     ---       #1378
      010009D1H   LINE      CODE     ---       #1379
      010009D7H   LINE      CODE     ---       #1381
      010009E0H   LINE      CODE     ---       #1382
      010009E2H   LINE      CODE     ---       #1383
      010009F1H   LINE      CODE     ---       #1384
      010009F1H   LINE      CODE     ---       #1385
      010009F7H   LINE      CODE     ---       #1387
      01000A00H   LINE      CODE     ---       #1388
      01000A02H   LINE      CODE     ---       #1389
      01000A11H   LINE      CODE     ---       #1390
      01000A11H   LINE      CODE     ---       #1391
      01000A17H   LINE      CODE     ---       #1393
      01000A20H   LINE      CODE     ---       #1394
      01000A22H   LINE      CODE     ---       #1395
      01000A2BH   LINE      CODE     ---       #1396
      01000A2BH   LINE      CODE     ---       #1397
      01000A31H   LINE      CODE     ---       #1398
      01000A34H   LINE      CODE     ---       #1400
      01000A37H   LINE      CODE     ---       #1401
      01000A37H   LINE      CODE     ---       #1402
      01000A3DH   LINE      CODE     ---       #1403
      01000A44H   LINE      CODE     ---       #1404
      01000A4BH   LINE      CODE     ---       #1405
      01000A4FH   LINE      CODE     ---       #1406
      01000A55H   LINE      CODE     ---       #1407
      01000A55H   LINE      CODE     ---       #1408
      01000A61H   LINE      CODE     ---       #1409
      01000A61H   LINE      CODE     ---       #1410
      01000A68H   LINE      CODE     ---       #1412
      01000A77H   LINE      CODE     ---       #1413
      01000A77H   LINE      CODE     ---       #1414
LX51 LINKER/LOCATER V4.05                                                             04/27/2018  15:47:28  PAGE 49


      01000A7DH   LINE      CODE     ---       #1416
      01000A86H   LINE      CODE     ---       #1417
      01000A88H   LINE      CODE     ---       #1418
      01000A97H   LINE      CODE     ---       #1419
      01000A97H   LINE      CODE     ---       #1420
      01000A9DH   LINE      CODE     ---       #1422
      01000AA6H   LINE      CODE     ---       #1423
      01000AA8H   LINE      CODE     ---       #1424
      01000AB7H   LINE      CODE     ---       #1425
      01000AB7H   LINE      CODE     ---       #1426
      01000ABDH   LINE      CODE     ---       #1428
      01000AC6H   LINE      CODE     ---       #1429
      01000AC8H   LINE      CODE     ---       #1430
      01000AD1H   LINE      CODE     ---       #1431
      01000AD1H   LINE      CODE     ---       #1432
      01000AD7H   LINE      CODE     ---       #1433
      01000ADFH   LINE      CODE     ---       #1435
      01000AE2H   LINE      CODE     ---       #1436
      01000AE2H   LINE      CODE     ---       #1437
      01000AE8H   LINE      CODE     ---       #1438
      01000AEFH   LINE      CODE     ---       #1439
      01000AF6H   LINE      CODE     ---       #1440
      01000AFAH   LINE      CODE     ---       #1441
      01000B00H   LINE      CODE     ---       #1442
      01000B00H   LINE      CODE     ---       #1443
      01000B17H   LINE      CODE     ---       #1444
      01000B17H   LINE      CODE     ---       #1445
      01000B1EH   LINE      CODE     ---       #1447
      01000B2CH   LINE      CODE     ---       #1448
      01000B2CH   LINE      CODE     ---       #1449
      01000B33H   LINE      CODE     ---       #1451
      01000B3CH   LINE      CODE     ---       #1452
      01000B3EH   LINE      CODE     ---       #1453
      01000B4DH   LINE      CODE     ---       #1454
      01000B4DH   LINE      CODE     ---       #1455
      01000B54H   LINE      CODE     ---       #1457
      01000B5DH   LINE      CODE     ---       #1458
      01000B5FH   LINE      CODE     ---       #1459
      01000B6EH   LINE      CODE     ---       #1460
      01000B6EH   LINE      CODE     ---       #1461
      01000B75H   LINE      CODE     ---       #1463
      01000B7EH   LINE      CODE     ---       #1464
      01000B7EH   LINE      CODE     ---       #1466
      01000B8DH   LINE      CODE     ---       #1467
      01000B8DH   LINE      CODE     ---       #1468
      01000B94H   LINE      CODE     ---       #1470
      01000B9DH   LINE      CODE     ---       #1471
      01000B9FH   LINE      CODE     ---       #1472
      01000BAEH   LINE      CODE     ---       #1473
      01000BAEH   LINE      CODE     ---       #1474
      01000BB5H   LINE      CODE     ---       #1476
      01000BBEH   LINE      CODE     ---       #1477
      01000BC0H   LINE      CODE     ---       #1478
      01000BCFH   LINE      CODE     ---       #1479
      01000BCFH   LINE      CODE     ---       #1480
      01000BD6H   LINE      CODE     ---       #1482
      01000BDFH   LINE      CODE     ---       #1483
      01000BDFH   LINE      CODE     ---       #1484
      01000BE5H   LINE      CODE     ---       #1485
      01000BECH   LINE      CODE     ---       #1486
      01000BF3H   LINE      CODE     ---       #1487
      01000BF7H   LINE      CODE     ---       #1488
      01000BFDH   LINE      CODE     ---       #1489
      01000BFDH   LINE      CODE     ---       #1498
      01000BFDH   LINE      CODE     ---       #1499
LX51 LINKER/LOCATER V4.05                                                             04/27/2018  15:47:28  PAGE 50


      01000BFDH   LINE      CODE     ---       #1502
      01000C0BH   LINE      CODE     ---       #1503
      01000C0BH   LINE      CODE     ---       #1505
      01000C12H   LINE      CODE     ---       #1506
      01000C19H   LINE      CODE     ---       #1507
      01000C1DH   LINE      CODE     ---       #1509
      01000C24H   LINE      CODE     ---       #1510
      01000C2BH   LINE      CODE     ---       #1511
      01000C2FH   LINE      CODE     ---       #1512
      01000C34H   LINE      CODE     ---       #1513
      01000C3BH   LINE      CODE     ---       #1514
      01000C41H   LINE      CODE     ---       #1515
      01000C41H   LINE      CODE     ---       #1516
      01000C44H   LINE      CODE     ---       #1517
      01000C52H   LINE      CODE     ---       #1518
      01000C52H   LINE      CODE     ---       #1520
      01000C59H   LINE      CODE     ---       #1521
      01000C60H   LINE      CODE     ---       #1522
      01000C64H   LINE      CODE     ---       #1524
      01000C6BH   LINE      CODE     ---       #1525
      01000C72H   LINE      CODE     ---       #1526
      01000C76H   LINE      CODE     ---       #1527
      01000C7BH   LINE      CODE     ---       #1528
      01000C82H   LINE      CODE     ---       #1529
      01000C88H   LINE      CODE     ---       #1530
      01000C88H   LINE      CODE     ---       #1531
      01000C8BH   LINE      CODE     ---       #1532
      01000C94H   LINE      CODE     ---       #1533
      01000C94H   LINE      CODE     ---       #1535
      01000C9BH   LINE      CODE     ---       #1536
      01000CA2H   LINE      CODE     ---       #1537
      01000CA6H   LINE      CODE     ---       #1539
      01000CADH   LINE      CODE     ---       #1540
      01000CB4H   LINE      CODE     ---       #1541
      01000CB8H   LINE      CODE     ---       #1542
      01000CBDH   LINE      CODE     ---       #1543
      01000CC3H   LINE      CODE     ---       #1544
      01000CCAH   LINE      CODE     ---       #1546
      01000CCFH   LINE      CODE     ---       #1547
      01000CCFH   LINE      CODE     ---       #1548
      01000CD1H   LINE      CODE     ---       #1549
      01000CD6H   LINE      CODE     ---       #1550
      01000CD6H   LINE      CODE     ---       #1552
      01000CDDH   LINE      CODE     ---       #1553
      01000CE4H   LINE      CODE     ---       #1554
      01000CE8H   LINE      CODE     ---       #1556
      01000CEFH   LINE      CODE     ---       #1557
      01000CF6H   LINE      CODE     ---       #1558
      01000CFAH   LINE      CODE     ---       #1559
      01000CFFH   LINE      CODE     ---       #1560
      01000D05H   LINE      CODE     ---       #1561
      01000D0CH   LINE      CODE     ---       #1563
      01000D12H   LINE      CODE     ---       #1564
      01000D18H   LINE      CODE     ---       #1565
      01000D1AH   LINE      CODE     ---       #1566
      01000D23H   LINE      CODE     ---       #1567
      01000D23H   LINE      CODE     ---       #1568
      01000D2AH   LINE      CODE     ---       #1569
      01000D2EH   LINE      CODE     ---       #1572
      01000D35H   LINE      CODE     ---       #1573
      01000D35H   LINE      CODE     ---       #1574
      01000D3CH   LINE      CODE     ---       #1576
      01000D42H   LINE      CODE     ---       #1577
      01000D49H   LINE      CODE     ---       #1578
      01000D50H   LINE      CODE     ---       #1589
LX51 LINKER/LOCATER V4.05                                                             04/27/2018  15:47:28  PAGE 51


      01000D50H   LINE      CODE     ---       #1590
      01000D52H   LINE      CODE     ---       #1591
      01000D57H   LINE      CODE     ---       #1592
      01000D57H   LINE      CODE     ---       #1593
      01000D5EH   LINE      CODE     ---       #1594
      01000D62H   LINE      CODE     ---       #1597
      01000D69H   LINE      CODE     ---       #1598
      01000D69H   LINE      CODE     ---       #1599
      01000D70H   LINE      CODE     ---       #1601
      01000D76H   LINE      CODE     ---       #1602
      01000D7DH   LINE      CODE     ---       #1603
      01000D84H   LINE      CODE     ---       #1614
      01000D84H   LINE      CODE     ---       #1615
      01000D84H   LINE      CODE     ---       #1617
      01000D8BH   LINE      CODE     ---       #1628
      01000D91H   LINE      CODE     ---       #1629
      01000D91H   LINE      CODE     ---       #1633
      01000D98H   LINE      CODE     ---       #1639
      01000D98H   LINE      CODE     ---       #1640
      01000D9FH   LINE      CODE     ---       #1641
      01000D9FH   LINE      CODE     ---       #1642
      01000DA6H   LINE      CODE     ---       #1643
      01000DA6H   LINE      CODE     ---       #1644
      01000DAAH   LINE      CODE     ---       #1645
      01000DB1H   LINE      CODE     ---       #1646
      01000DB5H   LINE      CODE     ---       #1647
      01000DBBH   LINE      CODE     ---       #1648
      01000DBBH   LINE      CODE     ---       #1649
      01000DC2H   LINE      CODE     ---       #1650
      01000DC8H   LINE      CODE     ---       #1651
      01000DCFH   LINE      CODE     ---       #1652
      01000DD3H   LINE      CODE     ---       #1653
      01000DDAH   LINE      CODE     ---       #1654
      01000DDAH   LINE      CODE     ---       #1655
      01000DE0H   LINE      CODE     ---       #1656
      01000DE2H   LINE      CODE     ---       #1657
      01000DE8H   LINE      CODE     ---       #1658
      01000DEFH   LINE      CODE     ---       #1659
      01000DF3H   LINE      CODE     ---       #1660
      01000DF7H   LINE      CODE     ---       #1662
      01000DF9H   LINE      CODE     ---       #1663
      01000DFBH   LINE      CODE     ---       #1664
      01000DFBH   LINE      CODE     ---       #1665
      01000E01H   LINE      CODE     ---       #1673
      01000E07H   LINE      CODE     ---       #1674
      01000E07H   LINE      CODE     ---       #1684
      01000E11H   LINE      CODE     ---       #1685
      01000E11H   LINE      CODE     ---       #1687
      01000E18H   LINE      CODE     ---       #1688
      01000E18H   LINE      CODE     ---       #1690
      01000E21H   LINE      CODE     ---       #1692
      01000E21H   LINE      CODE     ---       #1700
      01000E36H   LINE      CODE     ---       #1701
      01000E36H   LINE      CODE     ---       #1702
      01000E3CH   LINE      CODE     ---       #1705
      01000E41H   LINE      CODE     ---       #1706
      01000E44H   LINE      CODE     ---       #1709
      01000E44H   LINE      CODE     ---       #1711
      01000E4AH   LINE      CODE     ---       #1712
      01000E4AH   LINE      CODE     ---       #1713
      01000E51H   LINE      CODE     ---       #1714
      01000E55H   LINE      CODE     ---       #1715
      01000E5AH   LINE      CODE     ---       #1720
      01000E61H   LINE      CODE     ---       #1721
      01000E66H   LINE      CODE     ---       #1722
LX51 LINKER/LOCATER V4.05                                                             04/27/2018  15:47:28  PAGE 52


      01000E68H   LINE      CODE     ---       #1723
      01000E6AH   LINE      CODE     ---       #1724
      01000E6CH   LINE      CODE     ---       #1725
      01000E6EH   LINE      CODE     ---       #1726
      01000E70H   LINE      CODE     ---       #1727
      01000E72H   LINE      CODE     ---       #1728
      01000E76H   LINE      CODE     ---       #1730
      01000E7DH   LINE      CODE     ---       #1731
      01000E84H   LINE      CODE     ---       #1732
      01000E8BH   LINE      CODE     ---       #1733
      01000E92H   LINE      CODE     ---       #1734
      01000E96H   LINE      CODE     ---       #1743
      01000E96H   LINE      CODE     ---       #1752
      01000E9CH   LINE      CODE     ---       #1753
      01000E9CH   LINE      CODE     ---       #1763
      01000EA6H   LINE      CODE     ---       #1764
      01000EA6H   LINE      CODE     ---       #1766
      01000EADH   LINE      CODE     ---       #1767
      01000EADH   LINE      CODE     ---       #1769
      01000EB6H   LINE      CODE     ---       #1771
      01000EB6H   LINE      CODE     ---       #1779
      01000ECBH   LINE      CODE     ---       #1780
      01000ECBH   LINE      CODE     ---       #1781
      01000ED1H   LINE      CODE     ---       #1784
      01000ED7H   LINE      CODE     ---       #1785
      01000EDDH   LINE      CODE     ---       #1788
      01000EDDH   LINE      CODE     ---       #1790
      01000EE3H   LINE      CODE     ---       #1791
      01000EE3H   LINE      CODE     ---       #1792
      01000EEAH   LINE      CODE     ---       #1793
      01000EEEH   LINE      CODE     ---       #1794
      01000EF3H   LINE      CODE     ---       #1799
      01000EFAH   LINE      CODE     ---       #1800
      01000EFFH   LINE      CODE     ---       #1801
      01000F01H   LINE      CODE     ---       #1802
      01000F03H   LINE      CODE     ---       #1803
      01000F05H   LINE      CODE     ---       #1804
      01000F07H   LINE      CODE     ---       #1805
      01000F09H   LINE      CODE     ---       #1806
      01000F0BH   LINE      CODE     ---       #1807
      01000F0FH   LINE      CODE     ---       #1809
      01000F16H   LINE      CODE     ---       #1810
      01000F1DH   LINE      CODE     ---       #1811
      01000F24H   LINE      CODE     ---       #1812
      01000F2BH   LINE      CODE     ---       #1813
      01000F2FH   LINE      CODE     ---       #1822
      01000F2FH   LINE      CODE     ---       #1831
      01000F35H   LINE      CODE     ---       #1832
      01000F35H   LINE      CODE     ---       #1842
      01000F3CH   LINE      CODE     ---       #1843
      01000F3CH   LINE      CODE     ---       #1844
      01000F3EH   LINE      CODE     ---       #1845
      01000F40H   LINE      CODE     ---       #1847
      01000F46H   LINE      CODE     ---       #1849
      01000F4CH   LINE      CODE     ---       #1850
      01000F4CH   LINE      CODE     ---       #1856
      01000F53H   LINE      CODE     ---       #1857
      01000F53H   LINE      CODE     ---       #1858
      01000F59H   LINE      CODE     ---       #1860
      01000F60H   LINE      CODE     ---       #1861
      01000F60H   LINE      CODE     ---       #1862
      01000F67H   LINE      CODE     ---       #1863
      01000F6DH   LINE      CODE     ---       #1864
      01000F6FH   LINE      CODE     ---       #1866
      01000F6FH   LINE      CODE     ---       #1867
LX51 LINKER/LOCATER V4.05                                                             04/27/2018  15:47:28  PAGE 53


      01000F74H   LINE      CODE     ---       #1868
      01000F74H   LINE      CODE     ---       #1870
      01000F7AH   LINE      CODE     ---       #1871
      01000F7AH   LINE      CODE     ---       #1874
      01000F84H   LINE      CODE     ---       #1875
      01000F84H   LINE      CODE     ---       #1876
      01000F8AH   LINE      CODE     ---       #1878
      01000F98H   LINE      CODE     ---       #1879
      01000F98H   LINE      CODE     ---       #1881
      01000F9FH   LINE      CODE     ---       #1882
      01000F9FH   LINE      CODE     ---       #1883
      01000FA8H   LINE      CODE     ---       #1884
      01000FAAH   LINE      CODE     ---       #1885
      01000FB1H   LINE      CODE     ---       #1886
      01000FB1H   LINE      CODE     ---       #1887
      01000FBAH   LINE      CODE     ---       #1888
      01000FBAH   LINE      CODE     ---       #1889
      01000FBAH   LINE      CODE     ---       #1890
      01000FBAH   LINE      CODE     ---       #1891
      01000FBAH   LINE      CODE     ---       #1892
      01000FBCH   LINE      CODE     ---       #1893
      01000FCAH   LINE      CODE     ---       #1894
      01000FCAH   LINE      CODE     ---       #1896
      01000FD1H   LINE      CODE     ---       #1897
      01000FD1H   LINE      CODE     ---       #1898
      01000FDAH   LINE      CODE     ---       #1899
      01000FDCH   LINE      CODE     ---       #1900
      01000FE3H   LINE      CODE     ---       #1901
      01000FE3H   LINE      CODE     ---       #1902
      01000FECH   LINE      CODE     ---       #1903
      01000FECH   LINE      CODE     ---       #1904
      01000FECH   LINE      CODE     ---       #1905
      01000FECH   LINE      CODE     ---       #1906
      01000FECH   LINE      CODE     ---       #1907
      01000FEEH   LINE      CODE     ---       #1908
      01000FFCH   LINE      CODE     ---       #1909
      01000FFCH   LINE      CODE     ---       #1911
      01001003H   LINE      CODE     ---       #1912
      01001003H   LINE      CODE     ---       #1913
      0100100CH   LINE      CODE     ---       #1914
      0100100EH   LINE      CODE     ---       #1915
      01001015H   LINE      CODE     ---       #1916
      01001015H   LINE      CODE     ---       #1917
      0100101EH   LINE      CODE     ---       #1918
      0100101EH   LINE      CODE     ---       #1919
      01001025H   LINE      CODE     ---       #1920
      0100102CH   LINE      CODE     ---       #1921
      01001030H   LINE      CODE     ---       #1922
      01001030H   LINE      CODE     ---       #1924
      01001036H   LINE      CODE     ---       #1925
      01001036H   LINE      CODE     ---       #1928
      0100103DH   LINE      CODE     ---       #1929
      0100103DH   LINE      CODE     ---       #1930
      01001043H   LINE      CODE     ---       #1932
      01001049H   LINE      CODE     ---       #1933
      01001050H   LINE      CODE     ---       #1934
      01001057H   LINE      CODE     ---       #1935
      0100105CH   LINE      CODE     ---       #1950
      01001063H   LINE      CODE     ---       #1951
      0100106CH   LINE      CODE     ---       #1952
      0100107AH   LINE      CODE     ---       #1953
      01001081H   LINE      CODE     ---       #1956
      01001087H   LINE      CODE     ---       #1957
      01001087H   LINE      CODE     ---       #1960
      0100108EH   LINE      CODE     ---       #1961
LX51 LINKER/LOCATER V4.05                                                             04/27/2018  15:47:28  PAGE 54


      0100108EH   LINE      CODE     ---       #1962
      01001094H   LINE      CODE     ---       #1964
      0100109AH   LINE      CODE     ---       #1965
      010010A1H   LINE      CODE     ---       #1966
      010010A8H   LINE      CODE     ---       #1967
      010010ADH   LINE      CODE     ---       #1982
      010010B4H   LINE      CODE     ---       #1983
      010010BDH   LINE      CODE     ---       #1984
      010010CBH   LINE      CODE     ---       #1985
      010010D2H   LINE      CODE     ---       #1988
      010010D8H   LINE      CODE     ---       #1989
      010010D8H   LINE      CODE     ---       #1990
      010010D8H   LINE      CODE     ---       #1993
      010010DFH   LINE      CODE     ---       #1994
      010010DFH   LINE      CODE     ---       #1995
      010010F3H   LINE      CODE     ---       #1996
      010010F3H   LINE      CODE     ---       #1997
      010010F3H   LINE      CODE     ---       #1998
      010010FAH   LINE      CODE     ---       #2000
      01001101H   LINE      CODE     ---       #2003
      01001103H   LINE      CODE     ---       #2004
      01001103H   LINE      CODE     ---       #2005
      0100110BH   LINE      CODE     ---       #2006
      0100110BH   LINE      CODE     ---       #2008
      01001112H   LINE      CODE     ---       #2009
      0100111BH   LINE      CODE     ---       #2010
      01001129H   LINE      CODE     ---       #2011
      01001130H   LINE      CODE     ---       #2014
      01001130H   LINE      CODE     ---       #2015
      01001132H   LINE      CODE     ---       #2016
      01001132H   LINE      CODE     ---       #2017
      01001132H   LINE      CODE     ---       #2018
      01001132H   LINE      CODE     ---       #2019
      01001132H   LINE      CODE     ---       #2020
      01001132H   LINE      CODE     ---       #2021
      01001132H   LINE      CODE     ---       #2022
      01001132H   LINE      CODE     ---       #2023
      01001132H   LINE      CODE     ---       #2024
      01001132H   LINE      CODE     ---       #2025
      01001132H   LINE      CODE     ---       #2026
      01001132H   LINE      CODE     ---       #2027
      01001132H   LINE      CODE     ---       #2028
      01001132H   LINE      CODE     ---       #2029
      01001139H   LINE      CODE     ---       #2031
      01001139H   LINE      CODE     ---       #2032
      01001139H   LINE      CODE     ---       #2033
      01001139H   LINE      CODE     ---       #2034
      01001139H   LINE      CODE     ---       #2035
      01001139H   LINE      CODE     ---       #2036
      01001139H   LINE      CODE     ---       #2037
      01001139H   LINE      CODE     ---       #2038
      01001139H   LINE      CODE     ---       #2039
      0100113EH   LINE      CODE     ---       #2041
      01001144H   LINE      CODE     ---       #2042
      01001144H   LINE      CODE     ---       #2045
      0100114BH   LINE      CODE     ---       #2046
      0100114BH   LINE      CODE     ---       #2047
      01001151H   LINE      CODE     ---       #2049
      01001158H   LINE      CODE     ---       #2050
      0100115FH   LINE      CODE     ---       #2052
      01001165H   LINE      CODE     ---       #2053
      01001165H   LINE      CODE     ---       #2055
      0100116CH   LINE      CODE     ---       #2056
      0100116CH   LINE      CODE     ---       #2057
      01001172H   LINE      CODE     ---       #2059
LX51 LINKER/LOCATER V4.05                                                             04/27/2018  15:47:28  PAGE 55


      01001179H   LINE      CODE     ---       #2060
      01001180H   LINE      CODE     ---       #2062
      01001186H   LINE      CODE     ---       #2063
      01001186H   LINE      CODE     ---       #2065
      0100118DH   LINE      CODE     ---       #2066
      0100118DH   LINE      CODE     ---       #2067
      01001193H   LINE      CODE     ---       #2069
      01001199H   LINE      CODE     ---       #2070
      01001199H   LINE      CODE     ---       #2085
      ---         BLOCKEND  ---      ---       LVL=0

      ---         MODULE    ---      ---       MAINLOOP
      02000651H   PUBLIC    XDATA    BYTE      STANDARD_OUTPUT_CAPABILITIES
      02000351H   PUBLIC    XDATA    BYTE      TRANSMIT_BYTE_COUNT
      02000223H   PUBLIC    XDATA    BYTE      REG_GPIO_ODEN
      02000227H   PUBLIC    XDATA    BYTE      REG_GPIOP_OEB
      02000383H   PUBLIC    XDATA    BYTE      REG_OPTION_CTR_1
      02000350H   PUBLIC    XDATA    BYTE      TRANSMIT
      020003BBH   PUBLIC    XDATA    BYTE      HD_RST_RTY_TIMER_BYTE1
      02000109H   PUBLIC    XDATA    BYTE      AOP_REG_PDC_79_72
      020002DEH   PUBLIC    XDATA    BYTE      CTL_DEBUG_SEL
      0200005BH   PUBLIC    XDATA    BYTE      POWER_ON_RESET
      020003BAH   PUBLIC    XDATA    BYTE      HD_RST_RTY_TIMER_BYTE0
      020001C4H   PUBLIC    XDATA    BYTE      REG_RUSB_DRV_7_0
      02000213H   PUBLIC    XDATA    BYTE      AOI_REG_PDC_95_88
      02000633H   PUBLIC    XDATA    BYTE      REG_VCONN_DCC
      02000389H   PUBLIC    XDATA    BYTE      HD_RST_SEND_RDY_TIMER_BYTE1
      0200063AH   PUBLIC    XDATA    BYTE      REG_SET_CLR
      02000388H   PUBLIC    XDATA    BYTE      HD_RST_SEND_RDY_TIMER_BYTE0
      02000120H   PUBLIC    XDATA    BYTE      AOP_REG_ANATOP_7_0
      02000107H   PUBLIC    XDATA    BYTE      AOP_REG_PDC_63_56
      02000646H   PUBLIC    XDATA    BYTE      USBTYPEC_REV_L
      02000211H   PUBLIC    XDATA    BYTE      AOI_REG_PDC_79_72
      0200060EH   PUBLIC    XDATA    BYTE      REG_DET_CTRL6
      02000640H   PUBLIC    XDATA    BYTE      VENDOR_ID_L
      02000247H   PUBLIC    XDATA    BYTE      REG_WID_SEL
      0200060DH   PUBLIC    XDATA    BYTE      REG_DET_CTRL5
      02000647H   PUBLIC    XDATA    BYTE      USBTYPEC_REV_H
      02000273H   PUBLIC    XDATA    BYTE      I2C_OFFSET
      0200060CH   PUBLIC    XDATA    BYTE      REG_DET_CTRL4
      020003DDH   PUBLIC    XDATA    BYTE      REGDD
      02000245H   PUBLIC    XDATA    BYTE      REG_HPD_TOG
      0200060BH   PUBLIC    XDATA    BYTE      REG_DET_CTRL3
      02000372H   PUBLIC    XDATA    BYTE      VBUS_SINK_DISCONNECT_THRESHOLD_L
      0200060AH   PUBLIC    XDATA    BYTE      REG_DET_CTRL2
      02000641H   PUBLIC    XDATA    BYTE      VENDOR_ID_H
      02000381H   PUBLIC    XDATA    BYTE      REG_OPTION_CTR
      020003C0H   PUBLIC    XDATA    BYTE      TX_RX_Debug_Port_Index
      02000609H   PUBLIC    XDATA    BYTE      REG_DET_CTRL1
      02000314H   PUBLIC    XDATA    BYTE      POWER_STATUS_MASK
      02000274H   PUBLIC    XDATA    BYTE      I2C_WRDATA
      02000608H   PUBLIC    XDATA    BYTE      REG_DET_CTRL0
      02000370H   PUBLIC    XDATA    BYTE      VBUS_VOLTAGE_L
      0200020CH   PUBLIC    XDATA    BYTE      AOI_REG_PDC_39_32
      02000373H   PUBLIC    XDATA    BYTE      VBUS_SINK_DISCONNECT_THRESHOLD_H
      020002CCH   PUBLIC    XDATA    BYTE      READSPI_READY
      02000378H   PUBLIC    XDATA    BYTE      VBUS_VOLTAGE_ALARM_LO_CFG_L
      020002E9H   PUBLIC    XDATA    BYTE      DEBUG_IN
      02000354H   PUBLIC    XDATA    BYTE      TRANSMIT_DATA_OBJECTS
      02000371H   PUBLIC    XDATA    BYTE      VBUS_VOLTAGE_H
      0200022FH   PUBLIC    XDATA    BYTE      REG_STRETCH
      020002C2H   PUBLIC    XDATA    BYTE      MI2C_WDATA
      0200020AH   PUBLIC    XDATA    BYTE      AOI_REG_PDC_23_16
      02000638H   PUBLIC    XDATA    BYTE      FAULT_STATUS_TRIG
      02000379H   PUBLIC    XDATA    BYTE      VBUS_VOLTAGE_ALARM_LO_CFG_H
LX51 LINKER/LOCATER V4.05                                                             04/27/2018  15:47:28  PAGE 56


      0200020BH   PUBLIC    XDATA    BYTE      AOI_REG_PDC_31_24
      02000312H   PUBLIC    XDATA    BYTE      ALERT_MASK_LOW
      020003D9H   PUBLIC    XDATA    BYTE      REG_VENDOR_CTRL4
      0200038BH   PUBLIC    XDATA    BYTE      GOODCRC_BUS_IDLE_TIMER_BYTE_1
      020003D8H   PUBLIC    XDATA    BYTE      REG_VENDOR_CTRL3
      020002C3H   PUBLIC    XDATA    BYTE      MI2C_RDATA
      0200038AH   PUBLIC    XDATA    BYTE      GOODCRC_BUS_IDLE_TIMER_BYTE_0
      020003D7H   PUBLIC    XDATA    BYTE      REG_VENDOR_CTRL2
      02000333H   PUBLIC    XDATA    BYTE      RECEIVED_HEADER_HIGH
      0200039FH   PUBLIC    XDATA    BYTE      ALERT_MASK_REG_1
      020003D6H   PUBLIC    XDATA    BYTE      REG_VENDOR_CTRL1
      0200039EH   PUBLIC    XDATA    BYTE      ALERT_MASK_REG_0
      020003D5H   PUBLIC    XDATA    BYTE      REG_VENDOR_CTRL0
      020001C6H   PUBLIC    XDATA    BYTE      REG_RUSB_DRV_23_16
      020002D3H   PUBLIC    XDATA    BYTE      FROM_MPU_RDATA
      0200031EH   PUBLIC    XDATA    BYTE      POWER_STATUS
      02000376H   PUBLIC    XDATA    BYTE      VBUS_VOLTAGE_ALARM_HI_CFG_L
      02000386H   PUBLIC    XDATA    BYTE      ALERT_STATUS_5
      02000352H   PUBLIC    XDATA    BYTE      TRANSMIT_HEADER_LOW
      02000385H   PUBLIC    XDATA    BYTE      ALERT_STATUS_4
      02000606H   PUBLIC    XDATA    BYTE      REG_DEBOUNCE_CTRL6
      02000384H   PUBLIC    XDATA    BYTE      ALERT_STATUS_3
      020001E3H   PUBLIC    XDATA    BYTE      PDC_STAT_15_8
      02000207H   PUBLIC    XDATA    BYTE      AOI_REG_ANATOP_63_56
      020002C9H   PUBLIC    XDATA    BYTE      READSPI_ADDRL
      02000605H   PUBLIC    XDATA    BYTE      REG_DEBOUNCE_CTRL5
      02000311H   PUBLIC    XDATA    BYTE      ALERT_STATUS_2
      02000315H   PUBLIC    XDATA    BYTE      FAULT_STATUS_MASK
      02000604H   PUBLIC    XDATA    BYTE      REG_DEBOUNCE_CTRL4
      02000310H   PUBLIC    XDATA    BYTE      ALERT_STATUS_1
      02000377H   PUBLIC    XDATA    BYTE      VBUS_VOLTAGE_ALARM_HI_CFG_H
      020003ADH   PUBLIC    XDATA    BYTE      BMC_PHY_CTR11
      0200021FH   PUBLIC    XDATA    BYTE      REG_MI2C_MODE
      02000603H   PUBLIC    XDATA    BYTE      REG_DEBOUNCE_CTRL3
      020003ACH   PUBLIC    XDATA    BYTE      BMC_PHY_CTR10
      02000204H   PUBLIC    XDATA    BYTE      AOI_REG_ANATOP_39_32
      02000602H   PUBLIC    XDATA    BYTE      REG_DEBOUNCE_CTRL2
      020002CAH   PUBLIC    XDATA    BYTE      READSPI_ADDRH
      020002C5H   PUBLIC    XDATA    BYTE      MI2C_CTL
      02000601H   PUBLIC    XDATA    BYTE      REG_DEBOUNCE_CTRL1
      02000205H   PUBLIC    XDATA    BYTE      AOI_REG_ANATOP_47_40
      02000600H   PUBLIC    XDATA    BYTE      REG_DEBOUNCE_CTRL0
      0200063DH   PUBLIC    XDATA    BYTE      OTHER_CTRL3
      0200031DH   PUBLIC    XDATA    BYTE      CC_STATUS
      020002CBH   PUBLIC    XDATA    BYTE      READSPI_ADDRE
      02000634H   PUBLIC    XDATA    BYTE      REG_TMP_VBUS_VOL_7_0
      0200038EH   PUBLIC    XDATA    BYTE      TX_MSG_BUS_IDLE_TIMER_BYTE_2
      0200063FH   PUBLIC    XDATA    BYTE      CC_DET_DBG_OUT
      020002C4H   PUBLIC    XDATA    BYTE      MI2C_LEN
      0200063BH   PUBLIC    XDATA    BYTE      OTHER_CTRL1
      02000644H   PUBLIC    XDATA    BYTE      DEVICE_ID_L
      0200038DH   PUBLIC    XDATA    BYTE      TX_MSG_BUS_IDLE_TIMER_BYTE_1
      02000639H   PUBLIC    XDATA    BYTE      OTHER_CTRL0
      0200038CH   PUBLIC    XDATA    BYTE      TX_MSG_BUS_IDLE_TIMER_BYTE_0
      02000203H   PUBLIC    XDATA    BYTE      AOI_REG_ANATOP_31_24
      02000221H   PUBLIC    XDATA    BYTE      REG_GPIO_OUT
      02000648H   PUBLIC    XDATA    BYTE      USBPD_REV_VER_L
      02000645H   PUBLIC    XDATA    BYTE      DEVICE_ID_H
      0200031FH   PUBLIC    XDATA    BYTE      FAULT_STATUS
      02000649H   PUBLIC    XDATA    BYTE      USBPD_REV_VER_H
      0200022AH   PUBLIC    XDATA    BYTE      REG_IOMODE_CTL
      02000318H   PUBLIC    XDATA    BYTE      CONFIG_STANDARD_OUTPUT
      02000272H   PUBLIC    XDATA    BYTE      FUNC_IRQ_STATUS
      020001F0H   PUBLIC    XDATA    BYTE      CHIP_ID_L
      020003B6H   PUBLIC    XDATA    BYTE      HD_CB_RTY_COUNT
LX51 LINKER/LOCATER V4.05                                                             04/27/2018  15:47:28  PAGE 57


      02000642H   PUBLIC    XDATA    BYTE      PRODUCT_ID_L
      02000246H   PUBLIC    XDATA    BYTE      REGHPD
      020001F1H   PUBLIC    XDATA    BYTE      CHIP_ID_H
      0200022EH   PUBLIC    XDATA    BYTE      REG_IRQ_SRC_CTL
      02000643H   PUBLIC    XDATA    BYTE      PRODUCT_ID_H
      0200031AH   PUBLIC    XDATA    BYTE      ROLE_CONTROL
      0200063EH   PUBLIC    XDATA    BYTE      CC_DET_DBG_SEL
      020002F0H   PUBLIC    XDATA    BYTE      MPU_CTL
      020002C1H   PUBLIC    XDATA    BYTE      MI2C_OFFSET
      02000220H   PUBLIC    XDATA    BYTE      REG_GPIO_SEL
      02000334H   PUBLIC    XDATA    BYTE      RECEIVED_DATA_OBJECTS
      020003B4H   PUBLIC    XDATA    BYTE      GDCRC_HEADER_BYTE_L
      0200029DH   PUBLIC    XDATA    BYTE      CTL_IRQ
      02000319H   PUBLIC    XDATA    BYTE      TCPC_CONTROL
      02000209H   PUBLIC    XDATA    BYTE      AOI_REG_PDC_15_8
      020003B5H   PUBLIC    XDATA    BYTE      GDCRC_HEADER_BYTE_H
      0200024FH   PUBLIC    XDATA    BYTE      DEBUG_SEL
      02000607H   PUBLIC    XDATA    BYTE      REG_DLPF_CTRL0
      02000632H   PUBLIC    XDATA    BYTE      REG_VBUS_DCC
      02000186H   PUBLIC    XDATA    BYTE      REG_TUSB_DRV_15_8
      02000332H   PUBLIC    XDATA    BYTE      RECEIVED_HEADER_LOW
      02000380H   PUBLIC    XDATA    BYTE      SFT_HD_RST_EN
      0200038FH   PUBLIC    XDATA    BYTE      TX_RETRY_COUNTER
      020003ABH   PUBLIC    XDATA    BYTE      BMC_PHY_CTR9
      020001C5H   PUBLIC    XDATA    BYTE      REG_RUSB_DRV_15_8
      020003AAH   PUBLIC    XDATA    BYTE      BMC_PHY_CTR8
      020003A7H   PUBLIC    XDATA    BYTE      BMC_PHY_CTR7
      02000222H   PUBLIC    XDATA    BYTE      REG_GPIO_OEB
      020003A6H   PUBLIC    XDATA    BYTE      BMC_PHY_CTR6
      020003A5H   PUBLIC    XDATA    BYTE      BMC_PHY_CTR5
      020003A4H   PUBLIC    XDATA    BYTE      BMC_PHY_CTR4
      020003A3H   PUBLIC    XDATA    BYTE      BMC_PHY_CTR3
      02000631H   PUBLIC    XDATA    BYTE      REG_CC2_DCC
      0200032FH   PUBLIC    XDATA    BYTE      RECEIVE_DETECT
      0200032EH   PUBLIC    XDATA    BYTE      MESSAGE_HEADER_INFO
      020003A2H   PUBLIC    XDATA    BYTE      BMC_PHY_CTR2
      020002B4H   PUBLIC    XDATA    BYTE      ADDRCFG4
      02000630H   PUBLIC    XDATA    BYTE      REG_CC1_DCC
      02000331H   PUBLIC    XDATA    BYTE      RX_BUFF_FRAME_TYPE
      020003A1H   PUBLIC    XDATA    BYTE      BMC_PHY_CTR1
      020002D1H   PUBLIC    XDATA    BYTE      TO_MPU_OFFSET
      020003A0H   PUBLIC    XDATA    BYTE      BMC_PHY_CTR0
      020001F2H   PUBLIC    XDATA    BYTE      REVISION_L
      02000201H   PUBLIC    XDATA    BYTE      AOI_REG_ANATOP_15_8
      020002EAH   PUBLIC    XDATA    BYTE      TESTI2CADDR
      020002B0H   PUBLIC    XDATA    BYTE      ADDRCFG0
      020001E2H   PUBLIC    XDATA    BYTE      PDC_STAT_7_0
      020002D2H   PUBLIC    XDATA    BYTE      TO_MPU_WRDATA
      020003BFH   PUBLIC    XDATA    BYTE      BIST_CONT_MODE_CTR
      020001F3H   PUBLIC    XDATA    BYTE      REVISION_H
      02000226H   PUBLIC    XDATA    BYTE      REG_GPIOP_OUT
      02000276H   PUBLIC    XDATA    BYTE      GPIO_RD_BACK
      020003BEH   PUBLIC    XDATA    BYTE      BIST_CONT_MODE_BYTE2
      02000650H   PUBLIC    XDATA    BYTE      STANDARD_INPUT_CAPABILITIES
      020003BDH   PUBLIC    XDATA    BYTE      BIST_CONT_MODE_BYTE1
      02000275H   PUBLIC    XDATA    BYTE      STA_P2_75
      02000374H   PUBLIC    XDATA    BYTE      VBUS_STOP_DISCHARGE_THRESHOLD_L
      020003BCH   PUBLIC    XDATA    BYTE      BIST_CONT_MODE_BYTE0
      0200064FH   PUBLIC    XDATA    BYTE      DEVICE_CAPABILITIES_4
      020003B3H   PUBLIC    XDATA    BYTE      GOODCRC_RECEIVE_TIMER_BYTE1
      0200029CH   PUBLIC    XDATA    BYTE      CTLIRQ_CTL
      02000637H   PUBLIC    XDATA    BYTE      REG_POWER_STATUS
      0200064EH   PUBLIC    XDATA    BYTE      DEVICE_CAPABILITIES_3
      020003B2H   PUBLIC    XDATA    BYTE      GOODCRC_RECEIVE_TIMER_BYTE0
      0200064DH   PUBLIC    XDATA    BYTE      DEVICE_CAPABILITIES_2
LX51 LINKER/LOCATER V4.05                                                             04/27/2018  15:47:28  PAGE 58


      0200031CH   PUBLIC    XDATA    BYTE      POWER_CONTROL
      02000615H   PUBLIC    XDATA    BYTE      REG_CC_DET_INT_MASK5
      0200062DH   PUBLIC    XDATA    BYTE      CC_DET_IRQ_INT5
      0200064CH   PUBLIC    XDATA    BYTE      DEVICE_CAPABILITIES_1
      02000375H   PUBLIC    XDATA    BYTE      VBUS_STOP_DISCHARGE_THRESHOLD_H
      02000614H   PUBLIC    XDATA    BYTE      REG_CC_DET_INT_MASK4
      0200062CH   PUBLIC    XDATA    BYTE      CC_DET_IRQ_INT4
      02000613H   PUBLIC    XDATA    BYTE      REG_CC_DET_INT_MASK3
      0200062BH   PUBLIC    XDATA    BYTE      CC_DET_IRQ_INT3
      02000612H   PUBLIC    XDATA    BYTE      REG_CC_DET_INT_MASK2
      0200062AH   PUBLIC    XDATA    BYTE      CC_DET_IRQ_INT2
      020003B1H   PUBLIC    XDATA    BYTE      GDCRC_TIMER_BYTE1
      02000611H   PUBLIC    XDATA    BYTE      REG_CC_DET_INT_MASK1
      02000629H   PUBLIC    XDATA    BYTE      CC_DET_IRQ_INT1
      020003B0H   PUBLIC    XDATA    BYTE      GDCRC_TIMER_BYTE0
      02000610H   PUBLIC    XDATA    BYTE      REG_CC_DET_INT_MASK0
      02000625H   PUBLIC    XDATA    BYTE      CC_DET_IRQ_STATUS5
      02000628H   PUBLIC    XDATA    BYTE      CC_DET_IRQ_INT0
      02000156H   PUBLIC    XDATA    BYTE      REG_EQTX_31_24
      02000193H   PUBLIC    XDATA    BYTE      REG_EQRX_23_16
      02000624H   PUBLIC    XDATA    BYTE      CC_DET_IRQ_STATUS4
      020003C1H   PUBLIC    XDATA    BYTE      TX_RX_Debut_Port_Output
      02000623H   PUBLIC    XDATA    BYTE      CC_DET_IRQ_STATUS3
      02000636H   PUBLIC    XDATA    BYTE      REG_CC_STATUS
      02000194H   PUBLIC    XDATA    BYTE      REG_EQRX_31_24
      02000622H   PUBLIC    XDATA    BYTE      CC_DET_IRQ_STATUS2
      02000621H   PUBLIC    XDATA    BYTE      CC_DET_IRQ_STATUS1
      02000313H   PUBLIC    XDATA    BYTE      ALERT_MASK_HIGH
      02000620H   PUBLIC    XDATA    BYTE      CC_DET_IRQ_STATUS0
      02000252H   PUBLIC    XDATA    BYTE      FUNC_IRQ_MASK
      02000330H   PUBLIC    XDATA    BYTE      RECEIVE_BYTE_COUNT
      02000382H   PUBLIC    XDATA    BYTE      ALERT_CLR_ADDR_SET
      020002CDH   PUBLIC    XDATA    BYTE      READSPI_DATA
      02000225H   PUBLIC    XDATA    BYTE      REG_GPIOP_SEL
      02000635H   PUBLIC    XDATA    BYTE      REG_TMP_VBUS_VOL_15_8
      0200064AH   PUBLIC    XDATA    BYTE      PD_INTERFACE_REV_L
      02000353H   PUBLIC    XDATA    BYTE      TRANSMIT_HEADER_HIGH
      02000224H   PUBLIC    XDATA    BYTE      REG_GPIO_IVEN
      0200031BH   PUBLIC    XDATA    BYTE      FAULT_CONTROL
      020001E4H   PUBLIC    XDATA    BYTE      PDC_STAT_23_16
      020002D0H   PUBLIC    XDATA    BYTE      MPU_HOLD_MODE
      02000323H   PUBLIC    XDATA    BYTE      COMMAND
      020001E5H   PUBLIC    XDATA    BYTE      PDC_STAT_31_24
      0200064BH   PUBLIC    XDATA    BYTE      PD_INTERFACE_REV_H
      020002C0H   PUBLIC    XDATA    BYTE      MI2CSLV_ADDR
      0100160AH   PUBLIC    CODE     ---       main
      00000098H.3 SFRSYM    DATA     BIT       TB08
      000000C8H   SFRSYM    DATA     BIT       T2I0
      000000C3H   SFRSYM    DATA     BYTE      CCH1
      000000C8H.1 SFRSYM    DATA     BIT       T2I1
      00000098H.7 SFRSYM    DATA     BIT       SM00
      000000C5H   SFRSYM    DATA     BYTE      CCH2
      00000098H.6 SFRSYM    DATA     BIT       SM01
      000000C7H   SFRSYM    DATA     BYTE      CCH3
      00000098H.5 SFRSYM    DATA     BIT       SM02
      000000D0H.6 SFRSYM    DATA     BIT       AC
      000000C2H   SFRSYM    DATA     BYTE      CCL1
      000000C4H   SFRSYM    DATA     BYTE      CCL2
      000000A8H.7 SFRSYM    DATA     BIT       EA
      000000C6H   SFRSYM    DATA     BYTE      CCL3
      000000C8H.3 SFRSYM    DATA     BIT       T2R0
      000000C8H.4 SFRSYM    DATA     BIT       T2R1
      000000D9H   SFRSYM    DATA     BYTE      ECNTCON
      00000083H   SFRSYM    DATA     BYTE      DPH0
      000000F3H   SFRSYM    DATA     BYTE      ECNT20
LX51 LINKER/LOCATER V4.05                                                             04/27/2018  15:47:28  PAGE 59


      000000A8H   SFRSYM    DATA     BYTE      IE
      000000F4H   SFRSYM    DATA     BYTE      ECNT21
      000000F5H   SFRSYM    DATA     BYTE      ECNT22
      000000F6H   SFRSYM    DATA     BYTE      ECNT23
      00000082H   SFRSYM    DATA     BYTE      DPL0
      000000F7H   SFRSYM    DATA     BYTE      ECNT24
      000000C8H.6 SFRSYM    DATA     BIT       I3FR
      000000EBH   SFRSYM    DATA     BYTE      TA
      00000098H.4 SFRSYM    DATA     BIT       REN0
      000000C9H   SFRSYM    DATA     BYTE      T2IF
      000000C8H.2 SFRSYM    DATA     BIT       T2CM
      000000A8H.4 SFRSYM    DATA     BIT       ES
      000000B8H   SFRSYM    DATA     BYTE      IP
      000000CEH   SFRSYM    DATA     BYTE      CCEN
      00000098H   SFRSYM    DATA     BIT       RI
      000000D0H.7 SFRSYM    DATA     BIT       CY
      00000098H.1 SFRSYM    DATA     BIT       TI
      00000093H   SFRSYM    DATA     BYTE      DPX0
      000000B8H.4 SFRSYM    DATA     BIT       PS
      00000081H   SFRSYM    DATA     BYTE      SP
      000000D0H.2 SFRSYM    DATA     BIT       OV
      000000E8H.4 SFRSYM    DATA     BIT       EWDI
      000000C8H.7 SFRSYM    DATA     BIT       T2PS
      000000D8H.3 SFRSYM    DATA     BIT       WDIF
      000000CBH   SFRSYM    DATA     BYTE      RCRH
      00000099H   SFRSYM    DATA     BYTE      SBUF
      00000087H   SFRSYM    DATA     BYTE      PCON
      0000009EH   SFRSYM    DATA     BYTE      IDXL
      000000CAH   SFRSYM    DATA     BYTE      RCRL
      00000098H   SFRSYM    DATA     BYTE      SCON
      000000F8H.5 SFRSYM    DATA     BIT       PWDI
      00000089H   SFRSYM    DATA     BYTE      TMOD
      00000088H   SFRSYM    DATA     BYTE      TCON
      00000088H.1 SFRSYM    DATA     BIT       IE0
      00000088H.3 SFRSYM    DATA     BIT       IE1
      000000DAH   SFRSYM    DATA     BYTE      ECNTCON2
      000000EAH   SFRSYM    DATA     BYTE      MXAX
      000000F0H   SFRSYM    DATA     BYTE      B
      000000D8H.2 SFRSYM    DATA     BIT       WTRF
      000000E0H   SFRSYM    DATA     BYTE      ACC
      000000A8H.4 SFRSYM    DATA     BIT       ES0
      000000A8H.1 SFRSYM    DATA     BIT       ET0
      000000A8H.3 SFRSYM    DATA     BIT       ET1
      00000088H.5 SFRSYM    DATA     BIT       TF0
      00000098H   SFRSYM    DATA     BIT       RI0
      00000088H.7 SFRSYM    DATA     BIT       TF1
      00000098H.2 SFRSYM    DATA     BIT       RB8
      0000008CH   SFRSYM    DATA     BYTE      TH0
      000000A8H   SFRSYM    DATA     BIT       EX0
      00000098H.1 SFRSYM    DATA     BIT       TI0
      00000088H   SFRSYM    DATA     BIT       IT0
      0000008DH   SFRSYM    DATA     BYTE      TH1
      000000A8H.2 SFRSYM    DATA     BIT       EX1
      00000098H.3 SFRSYM    DATA     BIT       TB8
      00000088H.2 SFRSYM    DATA     BIT       IT1
      000000CDH   SFRSYM    DATA     BYTE      TH2
      000000E8H   SFRSYM    DATA     BIT       EX2
      000000D0H   SFRSYM    DATA     BIT       P
      000000E8H.1 SFRSYM    DATA     BIT       EX3
      00000098H.7 SFRSYM    DATA     BIT       SM0
      0000008AH   SFRSYM    DATA     BYTE      TL0
      000000E8H.2 SFRSYM    DATA     BIT       EX4
      00000098H.6 SFRSYM    DATA     BIT       SM1
      0000008BH   SFRSYM    DATA     BYTE      TL1
      000000E8H.3 SFRSYM    DATA     BIT       EX5
LX51 LINKER/LOCATER V4.05                                                             04/27/2018  15:47:28  PAGE 60


      00000098H.5 SFRSYM    DATA     BIT       SM2
      000000CCH   SFRSYM    DATA     BYTE      TL2
      000000B8H.4 SFRSYM    DATA     BIT       PS0
      000000E8H   SFRSYM    DATA     BYTE      EIE
      00000092H   SFRSYM    DATA     BYTE      WTST
      000000B8H.1 SFRSYM    DATA     BIT       PT0
      00000091H   SFRSYM    DATA     BYTE      EIF
      000000D0H.3 SFRSYM    DATA     BIT       RS0
      000000B8H.3 SFRSYM    DATA     BIT       PT1
      000000D0H.4 SFRSYM    DATA     BIT       RS1
      00000088H.4 SFRSYM    DATA     BIT       TR0
      00000088H.6 SFRSYM    DATA     BIT       TR1
      000000B8H   SFRSYM    DATA     BIT       PX0
      000000B8H.2 SFRSYM    DATA     BIT       PX1
      0000008FH   SFRSYM    DATA     BYTE      MDH
      000000F8H   SFRSYM    DATA     BIT       PX2
      000000F8H.1 SFRSYM    DATA     BIT       PX3
      000000E3H   SFRSYM    DATA     BYTE      ECNT0
      000000F8H.2 SFRSYM    DATA     BIT       PX4
      000000E4H   SFRSYM    DATA     BYTE      ECNT1
      00000083H   SFRSYM    DATA     BYTE      DPH
      000000F8H.3 SFRSYM    DATA     BIT       PX5
      000000E5H   SFRSYM    DATA     BYTE      ECNT2
      000000F8H.4 SFRSYM    DATA     BIT       PX6
      000000E6H   SFRSYM    DATA     BYTE      ECNT3
      000000F8H   SFRSYM    DATA     BYTE      EIP
      000000E7H   SFRSYM    DATA     BYTE      ECNT4
      00000082H   SFRSYM    DATA     BYTE      DPL
      00000099H   SFRSYM    DATA     BYTE      SBUF0
      00000098H   SFRSYM    DATA     BYTE      SCON0
      00000093H   SFRSYM    DATA     BYTE      DPP
      00000098H.4 SFRSYM    DATA     BIT       REN
      000000D8H.4 SFRSYM    DATA     BIT       INT5F
      000000C8H   SFRSYM    DATA     BYTE      T2CON
      000000D8H.5 SFRSYM    DATA     BIT       INT6F
      000000D8H.6 SFRSYM    DATA     BIT       INT7F
      000000D8H.7 SFRSYM    DATA     BIT       INT8F
      0000008EH   SFRSYM    DATA     BYTE      CKCON
      000000D8H.1 SFRSYM    DATA     BIT       EWT
      00000096H   SFRSYM    DATA     BYTE      SBANK
      000000D0H.5 SFRSYM    DATA     BIT       F0
      000000D0H.1 SFRSYM    DATA     BIT       F1
      000000D0H   SFRSYM    DATA     BYTE      PSW
      00000098H.2 SFRSYM    DATA     BIT       RB08
      000000D8H   SFRSYM    DATA     BYTE      WDCON
      000000D8H   SFRSYM    DATA     BIT       RWT

      0100160AH   BLOCK     CODE     ---       LVL=0
      0100160AH   LINE      CODE     ---       #10
      0100160AH   LINE      CODE     ---       #11
      0100160AH   LINE      CODE     ---       #13
      01001610H   LINE      CODE     ---       #15
      01001613H   LINE      CODE     ---       #17
      01001616H   LINE      CODE     ---       #19
      01001619H   LINE      CODE     ---       #21
      0100161CH   LINE      CODE     ---       #23
      0100161FH   LINE      CODE     ---       #25
      01001622H   LINE      CODE     ---       #27
      01001622H   LINE      CODE     ---       #28
      01001622H   LINE      CODE     ---       #35
      01001628H   LINE      CODE     ---       #36
      0100162FH   LINE      CODE     ---       #44
      01001644H   LINE      CODE     ---       #45
      01001644H   LINE      CODE     ---       #47
      01001647H   LINE      CODE     ---       #48
LX51 LINKER/LOCATER V4.05                                                             04/27/2018  15:47:28  PAGE 61


      01001647H   LINE      CODE     ---       #54
      ---         BLOCKEND  ---      ---       LVL=0

      ---         MODULE    ---      ---       VERSIONNUM
      0100211AH   PUBLIC    CONST    ---       g_uccBootloaderString
      01002020H   PUBLIC    CONST    ---       g_uccVersionDescription
      0100201FH   PUBLIC    CONST    BYTE      g_uccVersionNumMinor
      0100201EH   PUBLIC    CONST    BYTE      g_uccVersionNumMiddle
      0100201DH   PUBLIC    CONST    BYTE      g_uccVersionNumMajor
      01002000H   PUBLIC    CONST    ---       g_sProductID

      ---         MODULE    ---      ---       GLOBAL
      02000382H   PUBLIC    XDATA    BYTE      g_vucxVersion
      02000064H   PUBLIC    XDATA    BYTE      g_vucxProjectID
      02000412H   PUBLIC    XDATA    BYTE      g_ucxRole_Control
      02000410H   PUBLIC    XDATA    WORD      g_usx_VBUS_STOP_DISCHARGE
      0200040FH   PUBLIC    XDATA    BYTE      ucxCCState
      0200040DH   PUBLIC    XDATA    WORD      usxDelay
      0200040CH   PUBLIC    XDATA    BYTE      g_ucxRaDisconnCnt
      0200040BH   PUBLIC    XDATA    BYTE      g_ucxDisConnIgnore
      02000409H   PUBLIC    XDATA    WORD      g_usx_VBUS_SINK_DISCONNECT
      02000408H   PUBLIC    XDATA    BYTE      g_ucTick
      02000407H   PUBLIC    XDATA    BYTE      g_ucTicks
      02000406H   PUBLIC    XDATA    BYTE      g_ucxVBUS_Force_Discharge
      02000405H   PUBLIC    XDATA    BYTE      g_ucxExitSample
      02000403H   PUBLIC    XDATA    WORD      g_usx_VBUS_VOLTAGE_ALARM_LO
      02000401H   PUBLIC    XDATA    WORD      g_usx_VBUS_VOLTAGE_ALARM_HI
      02000400H   PUBLIC    XDATA    BYTE      g_ucxRpVal

      ---         MODULE    ---      ---       ?C_INIT
      010013ACH   PUBLIC    CODE     ---       ?C_START

      ---         MODULE    ---      ---       ?C?ILDIX
      010016E2H   PUBLIC    CODE     ---       ?C?ILDIX



*** WARNING L16: UNCALLED FUNCTION, IGNORED FOR OVERLAY PROCESS
    NAME:    ?CO?VERSIONNUM

*** WARNING L16: UNCALLED FUNCTION, IGNORED FOR OVERLAY PROCESS
    NAME:    _DELAY/PD

*** WARNING L30: MEMORY SPACE OVERLAP
    FROM:    X:000382H   
    TO:      X:000383H   

Program Size: data=15.0 xdata=249 const=364 code=5939
LX51 RUN COMPLETE.  3 WARNING(S),  0 ERROR(S)
